///////////////////////////////////////////////////////////////////////////////
//                                                                            /
// IAR C/C++ Compiler V8.10.3.40338/W32 for 8051        23/Aug/2012  17:43:13 /
// Copyright 2004-2011 IAR Systems AB.                                        /
//                                                                            /
//    Core               =  plain                                             /
//    Code model         =  banked                                            /
//    Data model         =  large                                             /
//    Calling convention =  xdata reentrant                                   /
//    Constant location  =  data_rom                                          /
//    Dptr setup         =  1,16                                              /
//    Source file        =  D:\Texas Instruments\ZStack-CC2530-2.5.1a\Project /
//                          s\zstack\Samples\WeiYi\Source\GenericApp.c        /
//    Command line       =  -f "D:\Texas Instruments\ZStack-CC2530-2.5.1a\Pro /
//                          jects\zstack\Samples\WeiYi\CC2530DB\..\..\..\Tool /
//                          s\CC2530DB\f8wCoord.cfg" (-DCPU32MHZ              /
//                          -DROOT=__near_func -DMAC_CFG_APP_PENDING_QUEUE=TR /
//                          UE -DMAC_CFG_TX_DATA_MAX=5 -DMAC_CFG_TX_MAX=8     /
//                          -DMAC_CFG_RX_MAX=5 -DZDO_COORDINATOR -DRTR_NWK)   /
//                          -f "D:\Texas Instruments\ZStack-CC2530-2.5.1a\Pro /
//                          jects\zstack\Samples\WeiYi\CC2530DB\..\..\..\Tool /
//                          s\CC2530DB\f8wConfig.cfg" (-DZIGBEEPRO            /
//                          -DSECURE=0 -DZG_SECURE_DYNAMIC=0 -DREFLECTOR      /
//                          -DDEFAULT_CHANLIST=0x00000800                     /
//                          -DZDAPP_CONFIG_PAN_ID=0xFFFF                      /
//                          -DNWK_START_DELAY=100 -DEXTENDED_JOINING_RANDOM_M /
//                          ASK=0x007F -DBEACON_REQUEST_DELAY=100             /
//                          -DBEACON_REQ_DELAY_MASK=0x00FF                    /
//                          -DLINK_STATUS_JITTER_MASK=0x007F                  /
//                          -DROUTE_EXPIRY_TIME=30 -DAPSC_ACK_WAIT_DURATION_P /
//                          OLLED=3000 -DNWK_INDIRECT_MSG_TIMEOUT=7           /
//                          -DMAX_RREQ_ENTRIES=8 -DAPSC_MAX_FRAME_RETRIES=3   /
//                          -DNWK_MAX_DATA_RETRIES=2                          /
//                          -DMAX_POLL_FAILURE_RETRIES=2 -DMAX_BCAST=9        /
//                          -DAPS_MAX_GROUPS=16 -DMAX_RTG_ENTRIES=40          /
//                          -DNWK_MAX_BINDING_ENTRIES=4                       /
//                          -DMAX_BINDING_CLUSTER_IDS=4                       /
//                          "-DDEFAULT_KEY={0x01, 0x03, 0x05, 0x07, 0x09,     /
//                          0x0B, 0x0D, 0x0F, 0x00, 0x02, 0x04, 0x06, 0x08,   /
//                          0x0A, 0x0C, 0x0D}" -DMAC_MAX_FRAME_SIZE=116       /
//                          -DZDNWKMGR_MIN_TRANSMISSIONS=20 "-DCONST=const    /
//                          __code" -DGENERIC=__generic                       /
//                          -DRFD_RCVC_ALWAYS_ON=FALSE -DPOLL_RATE=1000       /
//                          -DQUEUED_POLL_RATE=100 -DRESPONSE_POLL_RATE=100)  /
//                          -DREJOIN_POLL_RATE=440 "D:\Texas                  /
//                          Instruments\ZStack-CC2530-2.5.1a\Projects\zstack\ /
//                          Samples\WeiYi\Source\GenericApp.c" -D             /
//                          BUILD_ALL_DEVICES -D HOLD_AUTO_START -D ZTOOL_P1  /
//                          -D MT_TASK -D MT_SYS_FUNC -D MT_ZDO_FUNC -D       /
//                          LCD_SUPPORTED=DEBUG -D HAL_UART=TRUE -D xNV_INIT  /
//                          -D NV_RESTORE -D xPOWER_SAVING -lC "D:\Texas      /
//                          Instruments\ZStack-CC2530-2.5.1a\Projects\zstack\ /
//                          Samples\WeiYi\CC2530DB\CoordinatorEB\List\" -lA   /
//                          "D:\Texas Instruments\ZStack-CC2530-2.5.1a\Projec /
//                          ts\zstack\Samples\WeiYi\CC2530DB\CoordinatorEB\Li /
//                          st\" --diag_suppress Pe001,Pa010 -o "D:\Texas     /
//                          Instruments\ZStack-CC2530-2.5.1a\Projects\zstack\ /
//                          Samples\WeiYi\CC2530DB\CoordinatorEB\Obj\" -e     /
//                          --no_code_motion --debug --core=plain             /
//                          --dptr=16,1 --data_model=large                    /
//                          --code_model=banked --calling_convention=xdata_re /
//                          entrant --place_constants=data_rom                /
//                          --nr_virtual_regs 16 -I "D:\Texas                 /
//                          Instruments\ZStack-CC2530-2.5.1a\Projects\zstack\ /
//                          Samples\WeiYi\CC2530DB\" -I "D:\Texas             /
//                          Instruments\ZStack-CC2530-2.5.1a\Projects\zstack\ /
//                          Samples\WeiYi\CC2530DB\..\Source\" -I "D:\Texas   /
//                          Instruments\ZStack-CC2530-2.5.1a\Projects\zstack\ /
//                          Samples\WeiYi\CC2530DB\..\..\..\ZMain\TI2530DB\"  /
//                          -I "D:\Texas Instruments\ZStack-CC2530-2.5.1a\Pro /
//                          jects\zstack\Samples\WeiYi\CC2530DB\..\..\..\..\. /
//                          .\Components\hal\include\" -I "D:\Texas           /
//                          Instruments\ZStack-CC2530-2.5.1a\Projects\zstack\ /
//                          Samples\WeiYi\CC2530DB\..\..\..\..\..\Components\ /
//                          hal\target\CC2530EB\" -I "D:\Texas                /
//                          Instruments\ZStack-CC2530-2.5.1a\Projects\zstack\ /
//                          Samples\WeiYi\CC2530DB\..\..\..\..\..\Components\ /
//                          mac\include\" -I "D:\Texas                        /
//                          Instruments\ZStack-CC2530-2.5.1a\Projects\zstack\ /
//                          Samples\WeiYi\CC2530DB\..\..\..\..\..\Components\ /
//                          mac\high_level\" -I "D:\Texas                     /
//                          Instruments\ZStack-CC2530-2.5.1a\Projects\zstack\ /
//                          Samples\WeiYi\CC2530DB\..\..\..\..\..\Components\ /
//                          mac\low_level\srf04\" -I "D:\Texas                /
//                          Instruments\ZStack-CC2530-2.5.1a\Projects\zstack\ /
//                          Samples\WeiYi\CC2530DB\..\..\..\..\..\Components\ /
//                          mac\low_level\srf04\single_chip\" -I "D:\Texas    /
//                          Instruments\ZStack-CC2530-2.5.1a\Projects\zstack\ /
//                          Samples\WeiYi\CC2530DB\..\..\..\..\..\Components\ /
//                          mt\" -I "D:\Texas Instruments\ZStack-CC2530-2.5.1 /
//                          a\Projects\zstack\Samples\WeiYi\CC2530DB\..\..\.. /
//                          \..\..\Components\osal\include\" -I "D:\Texas     /
//                          Instruments\ZStack-CC2530-2.5.1a\Projects\zstack\ /
//                          Samples\WeiYi\CC2530DB\..\..\..\..\..\Components\ /
//                          services\saddr\" -I "D:\Texas                     /
//                          Instruments\ZStack-CC2530-2.5.1a\Projects\zstack\ /
//                          Samples\WeiYi\CC2530DB\..\..\..\..\..\Components\ /
//                          services\sdata\" -I "D:\Texas                     /
//                          Instruments\ZStack-CC2530-2.5.1a\Projects\zstack\ /
//                          Samples\WeiYi\CC2530DB\..\..\..\..\..\Components\ /
//                          stack\af\" -I "D:\Texas                           /
//                          Instruments\ZStack-CC2530-2.5.1a\Projects\zstack\ /
//                          Samples\WeiYi\CC2530DB\..\..\..\..\..\Components\ /
//                          stack\nwk\" -I "D:\Texas                          /
//                          Instruments\ZStack-CC2530-2.5.1a\Projects\zstack\ /
//                          Samples\WeiYi\CC2530DB\..\..\..\..\..\Components\ /
//                          stack\sapi\" -I "D:\Texas                         /
//                          Instruments\ZStack-CC2530-2.5.1a\Projects\zstack\ /
//                          Samples\WeiYi\CC2530DB\..\..\..\..\..\Components\ /
//                          stack\sec\" -I "D:\Texas                          /
//                          Instruments\ZStack-CC2530-2.5.1a\Projects\zstack\ /
//                          Samples\WeiYi\CC2530DB\..\..\..\..\..\Components\ /
//                          stack\sys\" -I "D:\Texas                          /
//                          Instruments\ZStack-CC2530-2.5.1a\Projects\zstack\ /
//                          Samples\WeiYi\CC2530DB\..\..\..\..\..\Components\ /
//                          stack\zdo\" -I "D:\Texas                          /
//                          Instruments\ZStack-CC2530-2.5.1a\Projects\zstack\ /
//                          Samples\WeiYi\CC2530DB\..\..\..\..\..\Components\ /
//                          zmac\" -I "D:\Texas Instruments\ZStack-CC2530-2.5 /
//                          .1a\Projects\zstack\Samples\WeiYi\CC2530DB\..\..\ /
//                          ..\..\..\Components\zmac\f8w\" -Ohz               /
//                          --require_prototypes                              /
//    List file          =  D:\Texas Instruments\ZStack-CC2530-2.5.1a\Project /
//                          s\zstack\Samples\WeiYi\CC2530DB\CoordinatorEB\Lis /
//                          t\GenericApp.s51                                  /
//                                                                            /
//                                                                            /
///////////////////////////////////////////////////////////////////////////////

        NAME GenericApp

        RTMODEL "__SystemLibrary", "CLib"
        RTMODEL "__calling_convention", "xdata_reentrant"
        RTMODEL "__code_model", "banked"
        RTMODEL "__core", "plain"
        RTMODEL "__data_model", "large"
        RTMODEL "__dptr_size", "16"
        RTMODEL "__extended_stack", "disabled"
        RTMODEL "__location_for_constants", "data"
        RTMODEL "__number_of_dptrs", "1"
        RTMODEL "__rt_version", "1"

        RSEG DOVERLAY:DATA:NOROOT(0)
        RSEG IOVERLAY:IDATA:NOROOT(0)
        RSEG ISTACK:IDATA:NOROOT(0)
        RSEG PSTACK:XDATA:NOROOT(0)
        RSEG XSTACK:XDATA:NOROOT(0)

        EXTERN ?ALLOC_XSTACK8
        EXTERN ?BANKED_ENTER_XDATA
        EXTERN ?BANKED_LEAVE_XDATA
        EXTERN ?BDISPATCH
        EXTERN ?BRET
        EXTERN ?DEALLOC_XSTACK8
        EXTERN ?MOVE_LONG8_XDATA_XDATA
        EXTERN ?PUSH_XSTACK_I_ONE
        EXTERN ?PUSH_XSTACK_I_THREE
        EXTERN ?PUSH_XSTACK_I_TWO
        EXTERN ?US_SWITCH_SPARSE
        EXTERN ?V0
        EXTERN ?XLOAD_R2345
        EXTERN ?XSP
        EXTERN ?XSTACK_DISP0_8
        EXTERN ?XSTORE_R2345
        EXTERN __INIT_XDATA_Z

        PUBLIC ??CAPI_SendCback?relay
        FUNCTION ??CAPI_SendCback?relay,0203H
        PUBLIC ??GenericApp_Init?relay
        FUNCTION ??GenericApp_Init?relay,0203H
        FUNCTION ??GenericApp_MessageMSGCB?relay,0203H
        PUBLIC ??GenericApp_ProcessEvent?relay
        FUNCTION ??GenericApp_ProcessEvent?relay,0203H
        PUBLIC ??Serial_callBack?relay
        FUNCTION ??Serial_callBack?relay,0203H
        PUBLIC ??cb_GetDeviceInfo?relay
        FUNCTION ??cb_GetDeviceInfo?relay,0203H
        PUBLIC ??cb_SendDataRequest?relay
        FUNCTION ??cb_SendDataRequest?relay,0203H
        PUBLIC CAPI_SendCback
        FUNCTION CAPI_SendCback,021203H
        ARGFRAME XSTACK, 27, STACK
        ARGFRAME IOVERLAY, 0, STATIC
        ARGFRAME DOVERLAY, 0, STATIC
        LOCFRAME ISTACK, 1, STACK
        LOCFRAME XSTACK, 12, STACK
        PUBLIC GenericApp_ClusterList
        PUBLIC GenericApp_DstAddr
        PUBLIC GenericApp_Init
        FUNCTION GenericApp_Init,021203H
        ARGFRAME XSTACK, 0, STACK
        LOCFRAME XSTACK, 10, STACK
        FUNCTION GenericApp_MessageMSGCB,021203H
        ARGFRAME XSTACK, 24, STACK
        ARGFRAME IOVERLAY, 0, STATIC
        ARGFRAME DOVERLAY, 0, STATIC
        LOCFRAME ISTACK, 2, STACK
        PUBLIC GenericApp_NwkState
        PUBLIC GenericApp_ProcessEvent
        FUNCTION GenericApp_ProcessEvent,0a1203H
        ARGFRAME XSTACK, 0, STACK
        LOCFRAME ISTACK, 2, STACK
        LOCFRAME XSTACK, 33, STACK
        PUBLIC GenericApp_SimpleDesc
        PUBLIC GenericApp_TaskID
        PUBLIC GenericApp_TransID
        PUBLIC GenericApp_epDesc
        PUBLIC Serial_callBack
        FUNCTION Serial_callBack,021203H
        ARGFRAME XSTACK, 0, STACK
        LOCFRAME ISTACK, 1, STACK
        LOCFRAME XSTACK, 229, STACK
        PUBWEAK WDCTL
        PUBWEAK _A_IEN0
        PUBWEAK _A_P1
        PUBWEAK __Constant_1000
        PUBWEAK __Constant_10000
        PUBWEAK __Constant_100000
        PUBWEAK __Constant_1000000
        PUBWEAK __Constant_2000
        PUBWEAK __Constant_20000
        PUBWEAK __Constant_200000
        PUBWEAK __Constant_2000000
        PUBWEAK __Constant_4000
        PUBWEAK __Constant_40000
        PUBWEAK __Constant_400000
        PUBWEAK __Constant_4000000
        PUBWEAK __Constant_800
        PUBWEAK __Constant_8000
        PUBWEAK __Constant_80000
        PUBWEAK __Constant_800000
        PUBLIC cb_GetDeviceInfo
        FUNCTION cb_GetDeviceInfo,021203H
        ARGFRAME XSTACK, 24, STACK
        ARGFRAME IOVERLAY, 0, STATIC
        ARGFRAME DOVERLAY, 0, STATIC
        LOCFRAME XSTACK, 14, STACK
        PUBLIC cb_SendDataRequest
        FUNCTION cb_SendDataRequest,021203H
        ARGFRAME XSTACK, 5, STACK
        LOCFRAME XSTACK, 36, STACK
        
        CFI Names cfiNames0
        CFI StackFrame CFA_SP SP IDATA
        CFI StackFrame CFA_PSP16 PSP16 XDATA
        CFI StackFrame CFA_XSP16 XSP16 XDATA
        CFI StaticOverlayFrame CFA_IOVERLAY IOVERLAY
        CFI StaticOverlayFrame CFA_DOVERLAY DOVERLAY
        CFI Resource `PSW.CY`:1, `B.BR0`:1, `B.BR1`:1, `B.BR2`:1, `B.BR3`:1
        CFI Resource `B.BR4`:1, `B.BR5`:1, `B.BR6`:1, `B.BR7`:1, `VB.BR8`:1
        CFI Resource `VB.BR9`:1, `VB.BR10`:1, `VB.BR11`:1, `VB.BR12`:1
        CFI Resource `VB.BR13`:1, `VB.BR14`:1, `VB.BR15`:1, VB:8, B:8, A:8
        CFI Resource PSW:8, DPL0:8, DPH0:8, R0:8, R1:8, R2:8, R3:8, R4:8, R5:8
        CFI Resource R6:8, R7:8, V0:8, V1:8, V2:8, V3:8, V4:8, V5:8, V6:8, V7:8
        CFI Resource V8:8, V9:8, V10:8, V11:8, V12:8, V13:8, V14:8, V15:8, SP:8
        CFI Resource PSPH:8, PSPL:8, PSP16:16, XSPH:8, XSPL:8, XSP16:16
        CFI VirtualResource ?RET:24
        CFI Resource ?BRET_EXT:8
        CFI VirtualResource ?RET_HIGH:8, ?RET_LOW:8
        CFI ResourceParts PSP16 PSPH, PSPL
        CFI ResourceParts XSP16 XSPH, XSPL
        CFI ResourceParts ?RET ?BRET_EXT, ?RET_HIGH, ?RET_LOW
        CFI EndNames cfiNames0
        
        CFI Common cfiCommon0 Using cfiNames0
        CFI CodeAlign 1
        CFI DataAlign -1
        CFI ReturnAddress ?RET CODE
        CFI CFA_DOVERLAY Used
        CFI CFA_IOVERLAY Used
        CFI CFA_SP SP+-3
        CFI CFA_PSP16 PSP16+0
        CFI CFA_XSP16 XSP16+0
        CFI `PSW.CY` SameValue
        CFI `B.BR0` SameValue
        CFI `B.BR1` SameValue
        CFI `B.BR2` SameValue
        CFI `B.BR3` SameValue
        CFI `B.BR4` SameValue
        CFI `B.BR5` SameValue
        CFI `B.BR6` SameValue
        CFI `B.BR7` SameValue
        CFI `VB.BR8` SameValue
        CFI `VB.BR9` SameValue
        CFI `VB.BR10` SameValue
        CFI `VB.BR11` SameValue
        CFI `VB.BR12` SameValue
        CFI `VB.BR13` SameValue
        CFI `VB.BR14` SameValue
        CFI `VB.BR15` SameValue
        CFI VB SameValue
        CFI B Undefined
        CFI A Undefined
        CFI PSW SameValue
        CFI DPL0 SameValue
        CFI DPH0 SameValue
        CFI R0 Undefined
        CFI R1 Undefined
        CFI R2 Undefined
        CFI R3 Undefined
        CFI R4 Undefined
        CFI R5 Undefined
        CFI R6 SameValue
        CFI R7 SameValue
        CFI V0 SameValue
        CFI V1 SameValue
        CFI V2 SameValue
        CFI V3 SameValue
        CFI V4 SameValue
        CFI V5 SameValue
        CFI V6 SameValue
        CFI V7 SameValue
        CFI V8 SameValue
        CFI V9 SameValue
        CFI V10 SameValue
        CFI V11 SameValue
        CFI V12 SameValue
        CFI V13 SameValue
        CFI V14 SameValue
        CFI V15 SameValue
        CFI PSPH Undefined
        CFI PSPL Undefined
        CFI XSPH Undefined
        CFI XSPL Undefined
        CFI ?RET Concat
        CFI ?BRET_EXT Frame(CFA_SP, 3)
        CFI ?RET_HIGH Frame(CFA_SP, 2)
        CFI ?RET_LOW Frame(CFA_SP, 1)
        CFI EndCommon cfiCommon0
        
        
        CFI Common cfiCommon1 Using cfiNames0
        CFI CodeAlign 1
        CFI DataAlign -1
        CFI ReturnAddress ?RET CODE
        CFI CFA_DOVERLAY Used
        CFI CFA_IOVERLAY Used
        CFI CFA_SP SP+-2
        CFI CFA_PSP16 PSP16+0
        CFI CFA_XSP16 XSP16+0
        CFI `PSW.CY` SameValue
        CFI `B.BR0` SameValue
        CFI `B.BR1` SameValue
        CFI `B.BR2` SameValue
        CFI `B.BR3` SameValue
        CFI `B.BR4` SameValue
        CFI `B.BR5` SameValue
        CFI `B.BR6` SameValue
        CFI `B.BR7` SameValue
        CFI `VB.BR8` SameValue
        CFI `VB.BR9` SameValue
        CFI `VB.BR10` SameValue
        CFI `VB.BR11` SameValue
        CFI `VB.BR12` SameValue
        CFI `VB.BR13` SameValue
        CFI `VB.BR14` SameValue
        CFI `VB.BR15` SameValue
        CFI VB SameValue
        CFI B SameValue
        CFI A SameValue
        CFI PSW SameValue
        CFI DPL0 SameValue
        CFI DPH0 SameValue
        CFI R0 SameValue
        CFI R1 SameValue
        CFI R2 SameValue
        CFI R3 SameValue
        CFI R4 SameValue
        CFI R5 SameValue
        CFI R6 SameValue
        CFI R7 SameValue
        CFI V0 SameValue
        CFI V1 SameValue
        CFI V2 SameValue
        CFI V3 SameValue
        CFI V4 SameValue
        CFI V5 SameValue
        CFI V6 SameValue
        CFI V7 SameValue
        CFI V8 SameValue
        CFI V9 SameValue
        CFI V10 SameValue
        CFI V11 SameValue
        CFI V12 SameValue
        CFI V13 SameValue
        CFI V14 SameValue
        CFI V15 SameValue
        CFI PSPH Undefined
        CFI PSPL Undefined
        CFI XSPH Undefined
        CFI XSPL Undefined
        CFI ?RET Concat
        CFI ?BRET_EXT SameValue
        CFI ?RET_HIGH Frame(CFA_SP, 2)
        CFI ?RET_LOW Frame(CFA_SP, 1)
        CFI EndCommon cfiCommon1
        
osal_memcpy         SYMBOL "osal_memcpy"
osal_msg_allocate   SYMBOL "osal_msg_allocate"
osal_msg_send       SYMBOL "osal_msg_send"
NLME_IsAddressBroadcast SYMBOL "NLME_IsAddressBroadcast"
AF_DataRequest      SYMBOL "AF_DataRequest"
HalUARTRead         SYMBOL "HalUARTRead"
UART_Send_String    SYMBOL "UART_Send_String"
NLME_GetExtAddr     SYMBOL "NLME_GetExtAddr"
set_coordi          SYMBOL "set_coordi"
set_router          SYMBOL "set_router"
AssocCount          SYMBOL "AssocCount"
uprint              SYMBOL "uprint"
HalLedSet           SYMBOL "HalLedSet"
NLME_GetShortAddr   SYMBOL "NLME_GetShortAddr"
ZDP_EndDeviceBindReq SYMBOL "ZDP_EndDeviceBindReq"
ZDP_MatchDescReq    SYMBOL "ZDP_MatchDescReq"
strncpy             SYMBOL "strncpy"
strtol              SYMBOL "strtol"
set_panid           SYMBOL "set_panid"
zgWriteStartupOptions SYMBOL "zgWriteStartupOptions"
sysPingReqRcvd      SYMBOL "sysPingReqRcvd"
NLME_UpdateNV       SYMBOL "NLME_UpdateNV"
ZMacSetReq          SYMBOL "ZMacSetReq"
osal_nv_item_init   SYMBOL "osal_nv_item_init"
osal_nv_write       SYMBOL "osal_nv_write"
ser_process         SYMBOL "ser_process"
afRegister          SYMBOL "afRegister"
RegisterForKeys     SYMBOL "RegisterForKeys"
HalLcdWriteString   SYMBOL "HalLcdWriteString"
osal_nv_item_len    SYMBOL "osal_nv_item_len"
cb_ReadConfiguration SYMBOL "cb_ReadConfiguration"
ZDOInitDevice       SYMBOL "ZDOInitDevice"
serial_init         SYMBOL "serial_init"
init_cc2530         SYMBOL "init_cc2530"
osal_msg_receive    SYMBOL "osal_msg_receive"
osal_msg_deallocate SYMBOL "osal_msg_deallocate"
ZDO_ParseEPListRsp  SYMBOL "ZDO_ParseEPListRsp"
osal_mem_free       SYMBOL "osal_mem_free"
osal_strlen         SYMBOL "osal_strlen"
osal_start_timerEx  SYMBOL "osal_start_timerEx"
??AF_DataRequest?relay SYMBOL "?relay", AF_DataRequest
??AssocCount?relay  SYMBOL "?relay", AssocCount
??HalLcdWriteString?relay SYMBOL "?relay", HalLcdWriteString
??HalLedSet?relay   SYMBOL "?relay", HalLedSet
??HalUARTRead?relay SYMBOL "?relay", HalUARTRead
??NLME_GetExtAddr?relay SYMBOL "?relay", NLME_GetExtAddr
??NLME_GetShortAddr?relay SYMBOL "?relay", NLME_GetShortAddr
??NLME_IsAddressBroadcast?relay SYMBOL "?relay", NLME_IsAddressBroadcast
??NLME_UpdateNV?relay SYMBOL "?relay", NLME_UpdateNV
??RegisterForKeys?relay SYMBOL "?relay", RegisterForKeys
??UART_Send_String?relay SYMBOL "?relay", UART_Send_String
??ZDOInitDevice?relay SYMBOL "?relay", ZDOInitDevice
??ZDO_ParseEPListRsp?relay SYMBOL "?relay", ZDO_ParseEPListRsp
??ZDP_EndDeviceBindReq?relay SYMBOL "?relay", ZDP_EndDeviceBindReq
??ZDP_MatchDescReq?relay SYMBOL "?relay", ZDP_MatchDescReq
??ZMacSetReq?relay  SYMBOL "?relay", ZMacSetReq
??afRegister?relay  SYMBOL "?relay", afRegister
??cb_ReadConfiguration?relay SYMBOL "?relay", cb_ReadConfiguration
??init_cc2530?relay SYMBOL "?relay", init_cc2530
??osal_mem_free?relay SYMBOL "?relay", osal_mem_free
??osal_memcpy?relay SYMBOL "?relay", osal_memcpy
??osal_msg_allocate?relay SYMBOL "?relay", osal_msg_allocate
??osal_msg_deallocate?relay SYMBOL "?relay", osal_msg_deallocate
??osal_msg_receive?relay SYMBOL "?relay", osal_msg_receive
??osal_msg_send?relay SYMBOL "?relay", osal_msg_send
??osal_nv_item_init?relay SYMBOL "?relay", osal_nv_item_init
??osal_nv_item_len?relay SYMBOL "?relay", osal_nv_item_len
??osal_nv_write?relay SYMBOL "?relay", osal_nv_write
??osal_start_timerEx?relay SYMBOL "?relay", osal_start_timerEx
??osal_strlen?relay SYMBOL "?relay", osal_strlen
??ser_process?relay SYMBOL "?relay", ser_process
??serial_init?relay SYMBOL "?relay", serial_init
??set_coordi?relay  SYMBOL "?relay", set_coordi
??set_panid?relay   SYMBOL "?relay", set_panid
??set_router?relay  SYMBOL "?relay", set_router
??strncpy?relay     SYMBOL "?relay", strncpy
??strtol?relay      SYMBOL "?relay", strtol
??sysPingReqRcvd?relay SYMBOL "?relay", sysPingReqRcvd
??uprint?relay      SYMBOL "?relay", uprint
??zgWriteStartupOptions?relay SYMBOL "?relay", zgWriteStartupOptions
CAPI_SendCback      SYMBOL "CAPI_SendCback"
??CAPI_SendCback?relay SYMBOL "?relay", CAPI_SendCback
GenericApp_Init     SYMBOL "GenericApp_Init"
??GenericApp_Init?relay SYMBOL "?relay", GenericApp_Init
GenericApp_ProcessEvent SYMBOL "GenericApp_ProcessEvent"
??GenericApp_ProcessEvent?relay SYMBOL "?relay", GenericApp_ProcessEvent
Serial_callBack     SYMBOL "Serial_callBack"
??Serial_callBack?relay SYMBOL "?relay", Serial_callBack
cb_GetDeviceInfo    SYMBOL "cb_GetDeviceInfo"
??cb_GetDeviceInfo?relay SYMBOL "?relay", cb_GetDeviceInfo
cb_SendDataRequest  SYMBOL "cb_SendDataRequest"
??cb_SendDataRequest?relay SYMBOL "?relay", cb_SendDataRequest

        EXTERN osal_memcpy
        FUNCTION osal_memcpy,0202H
        ARGFRAME ISTACK, 0, STACK
        ARGFRAME PSTACK, 0, STACK
        ARGFRAME XSTACK, 14, STACK
        ARGFRAME IOVERLAY, 0, STATIC
        ARGFRAME DOVERLAY, 0, STATIC
        EXTERN osal_msg_allocate
        FUNCTION osal_msg_allocate,0202H
        ARGFRAME ISTACK, 0, STACK
        ARGFRAME PSTACK, 0, STACK
        ARGFRAME XSTACK, 12, STACK
        ARGFRAME IOVERLAY, 0, STATIC
        ARGFRAME DOVERLAY, 0, STATIC
        EXTERN osal_msg_send
        FUNCTION osal_msg_send,0202H
        ARGFRAME ISTACK, 0, STACK
        ARGFRAME PSTACK, 0, STACK
        ARGFRAME XSTACK, 12, STACK
        ARGFRAME IOVERLAY, 0, STATIC
        ARGFRAME DOVERLAY, 0, STATIC
        EXTERN NLME_IsAddressBroadcast
        FUNCTION NLME_IsAddressBroadcast,0202H
        ARGFRAME ISTACK, 0, STACK
        ARGFRAME PSTACK, 0, STACK
        ARGFRAME XSTACK, 27, STACK
        ARGFRAME IOVERLAY, 0, STATIC
        ARGFRAME DOVERLAY, 0, STATIC
        EXTERN AF_DataRequest
        FUNCTION AF_DataRequest,0202H
        ARGFRAME ISTACK, 0, STACK
        ARGFRAME PSTACK, 0, STACK
        ARGFRAME XSTACK, 229, STACK
        ARGFRAME IOVERLAY, 0, STATIC
        ARGFRAME DOVERLAY, 0, STATIC
        EXTERN HalUARTRead
        FUNCTION HalUARTRead,0202H
        ARGFRAME ISTACK, 0, STACK
        ARGFRAME PSTACK, 0, STACK
        ARGFRAME XSTACK, 220, STACK
        ARGFRAME IOVERLAY, 0, STATIC
        ARGFRAME DOVERLAY, 0, STATIC
        EXTERN UART_Send_String
        FUNCTION UART_Send_String,0202H
        ARGFRAME ISTACK, 2, STACK
        ARGFRAME PSTACK, 0, STACK
        ARGFRAME XSTACK, 220, STACK
        ARGFRAME IOVERLAY, 0, STATIC
        ARGFRAME DOVERLAY, 0, STATIC
        EXTERN NLME_GetExtAddr
        FUNCTION NLME_GetExtAddr,0202H
        ARGFRAME ISTACK, 0, STACK
        ARGFRAME PSTACK, 0, STACK
        ARGFRAME XSTACK, 220, STACK
        ARGFRAME IOVERLAY, 0, STATIC
        ARGFRAME DOVERLAY, 0, STATIC
        EXTERN set_coordi
        FUNCTION set_coordi,0202H
        ARGFRAME ISTACK, 0, STACK
        ARGFRAME PSTACK, 0, STACK
        ARGFRAME XSTACK, 220, STACK
        ARGFRAME IOVERLAY, 0, STATIC
        ARGFRAME DOVERLAY, 0, STATIC
        EXTERN set_router
        FUNCTION set_router,0202H
        ARGFRAME ISTACK, 0, STACK
        ARGFRAME PSTACK, 0, STACK
        ARGFRAME XSTACK, 220, STACK
        ARGFRAME IOVERLAY, 0, STATIC
        ARGFRAME DOVERLAY, 0, STATIC
        EXTERN AssocCount
        FUNCTION AssocCount,0202H
        ARGFRAME ISTACK, 0, STACK
        ARGFRAME PSTACK, 0, STACK
        ARGFRAME XSTACK, 220, STACK
        ARGFRAME IOVERLAY, 0, STATIC
        ARGFRAME DOVERLAY, 0, STATIC
        EXTERN uprint
        FUNCTION uprint,0202H
        ARGFRAME ISTACK, 0, STACK
        ARGFRAME PSTACK, 0, STACK
        ARGFRAME XSTACK, 220, STACK
        ARGFRAME IOVERLAY, 0, STATIC
        ARGFRAME DOVERLAY, 0, STATIC
        EXTERN HalLedSet
        FUNCTION HalLedSet,0202H
        ARGFRAME ISTACK, 0, STACK
        ARGFRAME PSTACK, 0, STACK
        ARGFRAME XSTACK, 220, STACK
        ARGFRAME IOVERLAY, 0, STATIC
        ARGFRAME DOVERLAY, 0, STATIC
        EXTERN NLME_GetShortAddr
        FUNCTION NLME_GetShortAddr,0202H
        ARGFRAME ISTACK, 0, STACK
        ARGFRAME PSTACK, 0, STACK
        ARGFRAME XSTACK, 220, STACK
        ARGFRAME IOVERLAY, 0, STATIC
        ARGFRAME DOVERLAY, 0, STATIC
        EXTERN ZDP_EndDeviceBindReq
        FUNCTION ZDP_EndDeviceBindReq,0202H
        ARGFRAME ISTACK, 0, STACK
        ARGFRAME PSTACK, 0, STACK
        ARGFRAME XSTACK, 229, STACK
        ARGFRAME IOVERLAY, 0, STATIC
        ARGFRAME DOVERLAY, 0, STATIC
        EXTERN ZDP_MatchDescReq
        FUNCTION ZDP_MatchDescReq,0202H
        ARGFRAME ISTACK, 0, STACK
        ARGFRAME PSTACK, 0, STACK
        ARGFRAME XSTACK, 228, STACK
        ARGFRAME IOVERLAY, 0, STATIC
        ARGFRAME DOVERLAY, 0, STATIC
        EXTERN strncpy
        FUNCTION strncpy,010202H
        ARGFRAME ISTACK, 0, STACK
        ARGFRAME PSTACK, 0, STACK
        ARGFRAME XSTACK, 222, STACK
        ARGFRAME IOVERLAY, 0, STATIC
        ARGFRAME DOVERLAY, 0, STATIC
        EXTERN strtol
        FUNCTION strtol,010202H
        ARGFRAME ISTACK, 0, STACK
        ARGFRAME PSTACK, 0, STACK
        ARGFRAME XSTACK, 222, STACK
        ARGFRAME IOVERLAY, 0, STATIC
        ARGFRAME DOVERLAY, 0, STATIC
        EXTERN set_panid
        FUNCTION set_panid,0202H
        ARGFRAME ISTACK, 0, STACK
        ARGFRAME PSTACK, 0, STACK
        ARGFRAME XSTACK, 220, STACK
        ARGFRAME IOVERLAY, 0, STATIC
        ARGFRAME DOVERLAY, 0, STATIC
        EXTERN zgWriteStartupOptions
        FUNCTION zgWriteStartupOptions,0202H
        ARGFRAME ISTACK, 0, STACK
        ARGFRAME PSTACK, 0, STACK
        ARGFRAME XSTACK, 220, STACK
        ARGFRAME IOVERLAY, 0, STATIC
        ARGFRAME DOVERLAY, 0, STATIC
        EXTERN sysPingReqRcvd
        FUNCTION sysPingReqRcvd,0202H
        ARGFRAME ISTACK, 0, STACK
        ARGFRAME PSTACK, 0, STACK
        ARGFRAME XSTACK, 220, STACK
        ARGFRAME IOVERLAY, 0, STATIC
        ARGFRAME DOVERLAY, 0, STATIC
        EXTERN NLME_UpdateNV
        FUNCTION NLME_UpdateNV,0202H
        ARGFRAME ISTACK, 0, STACK
        ARGFRAME PSTACK, 0, STACK
        ARGFRAME XSTACK, 220, STACK
        ARGFRAME IOVERLAY, 0, STATIC
        ARGFRAME DOVERLAY, 0, STATIC
        EXTERN ZMacSetReq
        FUNCTION ZMacSetReq,0202H
        ARGFRAME ISTACK, 0, STACK
        ARGFRAME PSTACK, 0, STACK
        ARGFRAME XSTACK, 220, STACK
        ARGFRAME IOVERLAY, 0, STATIC
        ARGFRAME DOVERLAY, 0, STATIC
        EXTERN osal_nv_item_init
        FUNCTION osal_nv_item_init,0202H
        ARGFRAME ISTACK, 0, STACK
        ARGFRAME PSTACK, 0, STACK
        ARGFRAME XSTACK, 222, STACK
        ARGFRAME IOVERLAY, 0, STATIC
        ARGFRAME DOVERLAY, 0, STATIC
        EXTERN osal_nv_write
        FUNCTION osal_nv_write,0202H
        ARGFRAME ISTACK, 0, STACK
        ARGFRAME PSTACK, 0, STACK
        ARGFRAME XSTACK, 224, STACK
        ARGFRAME IOVERLAY, 0, STATIC
        ARGFRAME DOVERLAY, 0, STATIC
        EXTERN ser_process
        FUNCTION ser_process,0202H
        ARGFRAME ISTACK, 0, STACK
        ARGFRAME PSTACK, 0, STACK
        ARGFRAME XSTACK, 220, STACK
        ARGFRAME IOVERLAY, 0, STATIC
        ARGFRAME DOVERLAY, 0, STATIC
        EXTERN afRegister
        FUNCTION afRegister,0202H
        ARGFRAME ISTACK, 0, STACK
        ARGFRAME PSTACK, 0, STACK
        ARGFRAME XSTACK, 10, STACK
        ARGFRAME IOVERLAY, 0, STATIC
        ARGFRAME DOVERLAY, 0, STATIC
        EXTERN RegisterForKeys
        FUNCTION RegisterForKeys,0202H
        ARGFRAME ISTACK, 0, STACK
        ARGFRAME PSTACK, 0, STACK
        ARGFRAME XSTACK, 10, STACK
        ARGFRAME IOVERLAY, 0, STATIC
        ARGFRAME DOVERLAY, 0, STATIC
        EXTERN HalLcdWriteString
        FUNCTION HalLcdWriteString,0202H
        ARGFRAME ISTACK, 0, STACK
        ARGFRAME PSTACK, 0, STACK
        ARGFRAME XSTACK, 10, STACK
        ARGFRAME IOVERLAY, 0, STATIC
        ARGFRAME DOVERLAY, 0, STATIC
        EXTERN osal_nv_item_len
        FUNCTION osal_nv_item_len,0202H
        ARGFRAME ISTACK, 0, STACK
        ARGFRAME PSTACK, 0, STACK
        ARGFRAME XSTACK, 10, STACK
        ARGFRAME IOVERLAY, 0, STATIC
        ARGFRAME DOVERLAY, 0, STATIC
        EXTERN cb_ReadConfiguration
        FUNCTION cb_ReadConfiguration,0202H
        ARGFRAME ISTACK, 0, STACK
        ARGFRAME PSTACK, 0, STACK
        ARGFRAME XSTACK, 10, STACK
        ARGFRAME IOVERLAY, 0, STATIC
        ARGFRAME DOVERLAY, 0, STATIC
        EXTERN ZDOInitDevice
        FUNCTION ZDOInitDevice,0202H
        ARGFRAME ISTACK, 0, STACK
        ARGFRAME PSTACK, 0, STACK
        ARGFRAME XSTACK, 10, STACK
        ARGFRAME IOVERLAY, 0, STATIC
        ARGFRAME DOVERLAY, 0, STATIC
        EXTERN serial_init
        FUNCTION serial_init,0202H
        ARGFRAME ISTACK, 0, STACK
        ARGFRAME PSTACK, 0, STACK
        ARGFRAME XSTACK, 10, STACK
        ARGFRAME IOVERLAY, 0, STATIC
        ARGFRAME DOVERLAY, 0, STATIC
        EXTERN init_cc2530
        FUNCTION init_cc2530,0202H
        ARGFRAME ISTACK, 0, STACK
        ARGFRAME PSTACK, 0, STACK
        ARGFRAME XSTACK, 10, STACK
        ARGFRAME IOVERLAY, 0, STATIC
        ARGFRAME DOVERLAY, 0, STATIC
        EXTERN osal_msg_receive
        FUNCTION osal_msg_receive,0202H
        ARGFRAME ISTACK, 0, STACK
        ARGFRAME PSTACK, 0, STACK
        ARGFRAME XSTACK, 24, STACK
        ARGFRAME IOVERLAY, 0, STATIC
        ARGFRAME DOVERLAY, 0, STATIC
        EXTERN osal_msg_deallocate
        FUNCTION osal_msg_deallocate,0202H
        ARGFRAME ISTACK, 0, STACK
        ARGFRAME PSTACK, 0, STACK
        ARGFRAME XSTACK, 24, STACK
        ARGFRAME IOVERLAY, 0, STATIC
        ARGFRAME DOVERLAY, 0, STATIC
        EXTERN ZDO_ParseEPListRsp
        FUNCTION ZDO_ParseEPListRsp,0202H
        ARGFRAME ISTACK, 0, STACK
        ARGFRAME PSTACK, 0, STACK
        ARGFRAME XSTACK, 24, STACK
        ARGFRAME IOVERLAY, 0, STATIC
        ARGFRAME DOVERLAY, 0, STATIC
        EXTERN osal_mem_free
        FUNCTION osal_mem_free,0202H
        ARGFRAME ISTACK, 0, STACK
        ARGFRAME PSTACK, 0, STACK
        ARGFRAME XSTACK, 24, STACK
        ARGFRAME IOVERLAY, 0, STATIC
        ARGFRAME DOVERLAY, 0, STATIC
        EXTERN osal_strlen
        FUNCTION osal_strlen,0202H
        ARGFRAME ISTACK, 0, STACK
        ARGFRAME PSTACK, 0, STACK
        ARGFRAME XSTACK, 29, STACK
        ARGFRAME IOVERLAY, 0, STATIC
        ARGFRAME DOVERLAY, 0, STATIC
        EXTERN osal_start_timerEx
        FUNCTION osal_start_timerEx,0202H
        ARGFRAME ISTACK, 0, STACK
        ARGFRAME PSTACK, 0, STACK
        ARGFRAME XSTACK, 24, STACK
        ARGFRAME IOVERLAY, 0, STATIC
        ARGFRAME DOVERLAY, 0, STATIC
        EXTERN ??AF_DataRequest?relay
        FUNCTION ??AF_DataRequest?relay,00H
        EXTERN ??AssocCount?relay
        FUNCTION ??AssocCount?relay,00H
        EXTERN ??HalLcdWriteString?relay
        FUNCTION ??HalLcdWriteString?relay,00H
        EXTERN ??HalLedSet?relay
        FUNCTION ??HalLedSet?relay,00H
        EXTERN ??HalUARTRead?relay
        FUNCTION ??HalUARTRead?relay,00H
        EXTERN ??NLME_GetExtAddr?relay
        FUNCTION ??NLME_GetExtAddr?relay,00H
        EXTERN ??NLME_GetShortAddr?relay
        FUNCTION ??NLME_GetShortAddr?relay,00H
        EXTERN ??NLME_IsAddressBroadcast?relay
        FUNCTION ??NLME_IsAddressBroadcast?relay,00H
        EXTERN ??NLME_UpdateNV?relay
        FUNCTION ??NLME_UpdateNV?relay,00H
        EXTERN ??RegisterForKeys?relay
        FUNCTION ??RegisterForKeys?relay,00H
        EXTERN ??UART_Send_String?relay
        FUNCTION ??UART_Send_String?relay,00H
        EXTERN ??ZDOInitDevice?relay
        FUNCTION ??ZDOInitDevice?relay,00H
        EXTERN ??ZDO_ParseEPListRsp?relay
        FUNCTION ??ZDO_ParseEPListRsp?relay,00H
        EXTERN ??ZDP_EndDeviceBindReq?relay
        FUNCTION ??ZDP_EndDeviceBindReq?relay,00H
        EXTERN ??ZDP_MatchDescReq?relay
        FUNCTION ??ZDP_MatchDescReq?relay,00H
        EXTERN ??ZMacSetReq?relay
        FUNCTION ??ZMacSetReq?relay,00H
        EXTERN ??afRegister?relay
        FUNCTION ??afRegister?relay,00H
        EXTERN ??cb_ReadConfiguration?relay
        FUNCTION ??cb_ReadConfiguration?relay,00H
        EXTERN ??init_cc2530?relay
        FUNCTION ??init_cc2530?relay,00H
        EXTERN ??osal_mem_free?relay
        FUNCTION ??osal_mem_free?relay,00H
        EXTERN ??osal_memcpy?relay
        FUNCTION ??osal_memcpy?relay,00H
        EXTERN ??osal_msg_allocate?relay
        FUNCTION ??osal_msg_allocate?relay,00H
        EXTERN ??osal_msg_deallocate?relay
        FUNCTION ??osal_msg_deallocate?relay,00H
        EXTERN ??osal_msg_receive?relay
        FUNCTION ??osal_msg_receive?relay,00H
        EXTERN ??osal_msg_send?relay
        FUNCTION ??osal_msg_send?relay,00H
        EXTERN ??osal_nv_item_init?relay
        FUNCTION ??osal_nv_item_init?relay,00H
        EXTERN ??osal_nv_item_len?relay
        FUNCTION ??osal_nv_item_len?relay,00H
        EXTERN ??osal_nv_write?relay
        FUNCTION ??osal_nv_write?relay,00H
        EXTERN ??osal_start_timerEx?relay
        FUNCTION ??osal_start_timerEx?relay,00H
        EXTERN ??osal_strlen?relay
        FUNCTION ??osal_strlen?relay,00H
        EXTERN ??ser_process?relay
        FUNCTION ??ser_process?relay,00H
        EXTERN ??serial_init?relay
        FUNCTION ??serial_init?relay,00H
        EXTERN ??set_coordi?relay
        FUNCTION ??set_coordi?relay,00H
        EXTERN ??set_panid?relay
        FUNCTION ??set_panid?relay,00H
        EXTERN ??set_router?relay
        FUNCTION ??set_router?relay,00H
        EXTERN ??strncpy?relay
        FUNCTION ??strncpy?relay,00H
        EXTERN ??strtol?relay
        FUNCTION ??strtol?relay,00H
        EXTERN ??sysPingReqRcvd?relay
        FUNCTION ??sysPingReqRcvd?relay,00H
        EXTERN ??uprint?relay
        FUNCTION ??uprint?relay,00H
        EXTERN ??zgWriteStartupOptions?relay
        FUNCTION ??zgWriteStartupOptions?relay,00H
        EXTERN AssociatedDevList
        EXTERN _NIB
        EXTERN aExtendedAddress
        EXTERN devState
        EXTERN start_flag
        EXTERN zgDefaultChannelList
        EXTERN zgDeviceLogicalType

// D:\Texas Instruments\ZStack-CC2530-2.5.1a\Projects\zstack\Samples\WeiYi\Source\GenericApp.c
//    1 
//    2 #include <ioCC2530.h>

        ASEGN SFR_AN:DATA:NOROOT,090H
// union <unnamed> volatile __sfr _A_P1
_A_P1:
        DATA8
        DS 1

        ASEGN SFR_AN:DATA:NOROOT,0a8H
// union <unnamed> volatile __sfr _A_IEN0
_A_IEN0:
        DATA8
        DS 1

        ASEGN SFR_AN:DATA:NOROOT,0c9H
// unsigned char volatile __sfr WDCTL
WDCTL:
        DATA8
        DS 1
//    3 #include <stdio.h>
//    4 #include <stdlib.h>
//    5 #include <string.h>
//    6 
//    7 #include "ZComDef.h"
//    8 #include "OSAL.h"
//    9 #include "sapi.h"
//   10 #include "OSAL_Nv.h"
//   11 
//   12 #include "AF.h"
//   13 #include "AssocList.h"
//   14 #include "AddrMgr.h"
//   15 
//   16 #include "ZDApp.h"
//   17 #include "ZDObject.h"
//   18 #include "ZDProfile.h"
//   19 
//   20 #include "NLMEDE.h"
//   21 #include "OnBoard.h"
//   22 #include "nwk_util.h"
//   23 
//   24 #include "GenericApp.h"
//   25 #include "DebugTrace.h"
//   26 
//   27 #if !defined( WIN32 )
//   28   #include "OnBoard.h"
//   29 #endif
//   30 
//   31 /* HAL */
//   32 #include "hal_lcd.h"
//   33 #include "hal_led.h"
//   34 #include "hal_key.h"
//   35 #include "hal_uart.h"
//   36 
//   37 
//   38 /* RTOS */
//   39 #if defined( IAR_ARMCM3_LM )
//   40 #include "RTOS_App.h"
//   41 #endif  
//   42 
//   43 #include "protocol.h"
//   44 
//   45 
//   46 #define SAPICB_DATA_CNF   0xE0
//   47 #define SAPICB_BIND_CNF   0xE1
//   48 #define SAPICB_START_CNF  0xE2
//   49 
//   50 
//   51 extern uint8 ZDApp_RestoreNetworkState(void);
//   52 extern uint8 ZDApp_ReadNetworkRestoreState(void);
//   53 void init_cc2530(void); // for init cc2530 code, be careful with zstack hardware
//   54 
//   55 
//   56 // This list should be filled with Application specific Cluster IDs.

        RSEG XDATA_ROM_C:CONST:REORDER:NOROOT(0)
        DATA16
//   57 const cId_t GenericApp_ClusterList[GENERICAPP_MAX_CLUSTERS] =
GenericApp_ClusterList:
        DW 1
//   58 {
//   59   GENERICAPP_CLUSTERID
//   60 };
//   61 

        RSEG XDATA_ROM_C:CONST:REORDER:NOROOT(0)
        DATA8
//   62 const SimpleDescriptionFormat_t GenericApp_SimpleDesc =
GenericApp_SimpleDesc:
        DB 10
        DATA16
        DW 3844
        DW 1
        DATA8
        DB 0
        DB 1
        DATA16
        DW GenericApp_ClusterList
        DATA8
        DB 1
        DATA16
        DW GenericApp_ClusterList
//   63 {
//   64   GENERICAPP_ENDPOINT,              //  int Endpoint;
//   65   GENERICAPP_PROFID,                //  uint16 AppProfId[2];
//   66   GENERICAPP_DEVICEID,              //  uint16 AppDeviceId[2];
//   67   GENERICAPP_DEVICE_VERSION,        //  int   AppDevVer:4;
//   68   GENERICAPP_FLAGS,                 //  int   AppFlags:4;
//   69   GENERICAPP_MAX_CLUSTERS,          //  byte  AppNumInClusters;
//   70   (cId_t *)GenericApp_ClusterList,  //  byte *pAppInClusterList;
//   71   GENERICAPP_MAX_CLUSTERS,          //  byte  AppNumInClusters;
//   72   (cId_t *)GenericApp_ClusterList   //  byte *pAppInClusterList;
//   73 };
//   74 
//   75 // This is the Endpoint/Interface description.  It is defined here, but
//   76 // filled-in in GenericApp_Init().  Another way to go would be to fill
//   77 // in the structure here and make it a "const" (in code space).  The
//   78 // way it's defined in this sample app it is define in RAM.

        RSEG XDATA_Z:XDATA:NOROOT(0)
        DATA8
//   79 endPointDesc_t GenericApp_epDesc;
GenericApp_epDesc:
        DS 6
        REQUIRE __INIT_XDATA_Z
//   80 
//   81 

        RSEG XDATA_Z:XDATA:NOROOT(0)
        DATA8
//   82 byte GenericApp_TaskID;   // Task ID for internal task/event processing
GenericApp_TaskID:
        DS 1
        REQUIRE __INIT_XDATA_Z
//   83                           // This variable will be received when
//   84                           // GenericApp_Init() is called.

        RSEG XDATA_Z:XDATA:NOROOT(0)
        DATA8
//   85 devStates_t GenericApp_NwkState;
GenericApp_NwkState:
        DS 1
        REQUIRE __INIT_XDATA_Z
//   86 
//   87 

        RSEG XDATA_Z:XDATA:NOROOT(0)
        DATA8
//   88 byte GenericApp_TransID;  // This is the unique message ID (counter)
GenericApp_TransID:
        DS 1
        REQUIRE __INIT_XDATA_Z
//   89 

        RSEG XDATA_Z:XDATA:NOROOT(0)
        DATA8
//   90 afAddrType_t GenericApp_DstAddr;
GenericApp_DstAddr:
        DS 12
        REQUIRE __INIT_XDATA_Z
//   91 

        RSEG XDATA_Z:XDATA:NOROOT(0)
        DATA16
//   92 static uint16 parentShortAddr;
parentShortAddr:
        DS 2
        REQUIRE __INIT_XDATA_Z
//   93 
//   94 extern uint8 start_flag;
//   95 
//   96 // Device Info Constants
//   97 #define ZB_INFO_DEV_STATE                 0
//   98 #define ZB_INFO_IEEE_ADDR                 1
//   99 #define ZB_INFO_SHORT_ADDR                2
//  100 #define ZB_INFO_PARENT_SHORT_ADDR         3
//  101 #define ZB_INFO_PARENT_IEEE_ADDR          4
//  102 #define ZB_INFO_CHANNEL                   5
//  103 #define ZB_INFO_PAN_ID                    6
//  104 #define ZB_INFO_EXT_PAN_ID                7
//  105 
//  106 void cb_GetDeviceInfo ( uint8 , void *);
//  107 void cb_SendDataRequest ( uint16 , uint16 , uint8 ,uint8 *, uint8 , uint8 , uint8  );
//  108 void CAPI_SendCback( uint8 , uint8 , uint16 );
//  109 
//  110 

        RSEG BANKED_CODE:CODE:NOROOT(0)
//  111 void cb_GetDeviceInfo ( uint8 param, void *pValue )
cb_GetDeviceInfo:
        CFI Block cfiBlock0 Using cfiCommon0
        CFI Function cb_GetDeviceInfo
        CODE
//  112 {
        FUNCALL cb_GetDeviceInfo, osal_memcpy
        LOCFRAME ISTACK, 0, STACK
        LOCFRAME PSTACK, 0, STACK
        LOCFRAME XSTACK, 14, STACK
        LOCFRAME IOVERLAY, 0, STATIC
        LOCFRAME DOVERLAY, 0, STATIC
        ARGFRAME ISTACK, 0, STACK
        ARGFRAME PSTACK, 0, STACK
        ARGFRAME XSTACK, 14, STACK
        ARGFRAME IOVERLAY, 0, STATIC
        ARGFRAME DOVERLAY, 0, STATIC
        FUNCALL cb_GetDeviceInfo, osal_memcpy
        LOCFRAME ISTACK, 0, STACK
        LOCFRAME PSTACK, 0, STACK
        LOCFRAME XSTACK, 14, STACK
        LOCFRAME IOVERLAY, 0, STATIC
        LOCFRAME DOVERLAY, 0, STATIC
        ARGFRAME ISTACK, 0, STACK
        ARGFRAME PSTACK, 0, STACK
        ARGFRAME XSTACK, 14, STACK
        ARGFRAME IOVERLAY, 0, STATIC
        ARGFRAME DOVERLAY, 0, STATIC
        FUNCALL cb_GetDeviceInfo, osal_memcpy
        LOCFRAME ISTACK, 0, STACK
        LOCFRAME PSTACK, 0, STACK
        LOCFRAME XSTACK, 14, STACK
        LOCFRAME IOVERLAY, 0, STATIC
        LOCFRAME DOVERLAY, 0, STATIC
        ARGFRAME ISTACK, 0, STACK
        ARGFRAME PSTACK, 0, STACK
        ARGFRAME XSTACK, 14, STACK
        ARGFRAME IOVERLAY, 0, STATIC
        ARGFRAME DOVERLAY, 0, STATIC
        FUNCALL cb_GetDeviceInfo, osal_memcpy
        LOCFRAME ISTACK, 0, STACK
        LOCFRAME PSTACK, 0, STACK
        LOCFRAME XSTACK, 14, STACK
        LOCFRAME IOVERLAY, 0, STATIC
        LOCFRAME DOVERLAY, 0, STATIC
        ARGFRAME ISTACK, 0, STACK
        ARGFRAME PSTACK, 0, STACK
        ARGFRAME XSTACK, 14, STACK
        ARGFRAME IOVERLAY, 0, STATIC
        ARGFRAME DOVERLAY, 0, STATIC
        FUNCALL cb_GetDeviceInfo, osal_memcpy
        LOCFRAME ISTACK, 0, STACK
        LOCFRAME PSTACK, 0, STACK
        LOCFRAME XSTACK, 14, STACK
        LOCFRAME IOVERLAY, 0, STATIC
        LOCFRAME DOVERLAY, 0, STATIC
        ARGFRAME ISTACK, 0, STACK
        ARGFRAME PSTACK, 0, STACK
        ARGFRAME XSTACK, 14, STACK
        ARGFRAME IOVERLAY, 0, STATIC
        ARGFRAME DOVERLAY, 0, STATIC
        FUNCALL cb_GetDeviceInfo, osal_memcpy
        LOCFRAME ISTACK, 0, STACK
        LOCFRAME PSTACK, 0, STACK
        LOCFRAME XSTACK, 14, STACK
        LOCFRAME IOVERLAY, 0, STATIC
        LOCFRAME DOVERLAY, 0, STATIC
        ARGFRAME ISTACK, 0, STACK
        ARGFRAME PSTACK, 0, STACK
        ARGFRAME XSTACK, 14, STACK
        ARGFRAME IOVERLAY, 0, STATIC
        ARGFRAME DOVERLAY, 0, STATIC
        FUNCALL cb_GetDeviceInfo, osal_memcpy
        LOCFRAME ISTACK, 0, STACK
        LOCFRAME PSTACK, 0, STACK
        LOCFRAME XSTACK, 14, STACK
        LOCFRAME IOVERLAY, 0, STATIC
        LOCFRAME DOVERLAY, 0, STATIC
        ARGFRAME ISTACK, 0, STACK
        ARGFRAME PSTACK, 0, STACK
        ARGFRAME XSTACK, 14, STACK
        ARGFRAME IOVERLAY, 0, STATIC
        ARGFRAME DOVERLAY, 0, STATIC
        FUNCALL cb_GetDeviceInfo, osal_memcpy
        LOCFRAME ISTACK, 0, STACK
        LOCFRAME PSTACK, 0, STACK
        LOCFRAME XSTACK, 14, STACK
        LOCFRAME IOVERLAY, 0, STATIC
        LOCFRAME DOVERLAY, 0, STATIC
        ARGFRAME ISTACK, 0, STACK
        ARGFRAME PSTACK, 0, STACK
        ARGFRAME XSTACK, 14, STACK
        ARGFRAME IOVERLAY, 0, STATIC
        ARGFRAME DOVERLAY, 0, STATIC
        MOV     A,#-0xb
        LCALL   ?BANKED_ENTER_XDATA
        CFI DPH0 load(1, XDATA, add(CFA_XSP16, literal(-1)))
        CFI DPL0 load(1, XDATA, add(CFA_XSP16, literal(-2)))
        CFI ?BRET_EXT load(1, XDATA, add(CFA_XSP16, literal(-3)))
        CFI ?RET_HIGH load(1, XDATA, add(CFA_XSP16, literal(-4)))
        CFI ?RET_LOW load(1, XDATA, add(CFA_XSP16, literal(-5)))
        CFI R7 load(1, XDATA, add(CFA_XSP16, literal(-6)))
        CFI V2 load(1, XDATA, add(CFA_XSP16, literal(-7)))
        CFI V1 load(1, XDATA, add(CFA_XSP16, literal(-8)))
        CFI V0 load(1, XDATA, add(CFA_XSP16, literal(-9)))
        CFI VB load(1, XDATA, add(CFA_XSP16, literal(-10)))
        CFI R6 load(1, XDATA, add(CFA_XSP16, literal(-11)))
        CFI CFA_SP SP+0
        CFI CFA_XSP16 add(XSP16, 11)
        ; Saved register size: 11
        ; Auto size: 0
        MOV     A,R1
//  113   switch(param)
        JZ      ??cb_GetDeviceInfo_0
        DEC     A
        JZ      ??cb_GetDeviceInfo_1
        DEC     A
        JZ      ??cb_GetDeviceInfo_2
        DEC     A
        JZ      ??cb_GetDeviceInfo_3
        DEC     A
        JZ      ??cb_GetDeviceInfo_4
        DEC     A
        JZ      ??cb_GetDeviceInfo_5
        DEC     A
        JZ      ??cb_GetDeviceInfo_6
        DEC     A
        JZ      ??cb_GetDeviceInfo_7
        SJMP    ??cb_GetDeviceInfo_8
//  114   {
//  115     case ZB_INFO_DEV_STATE:
//  116       osal_memcpy(pValue, &devState, sizeof(uint8));
??cb_GetDeviceInfo_0:
        ; Setup parameters for call to function osal_memcpy
        MOV     ?V0 + 0,#devState & 0xff
        MOV     ?V0 + 1,#(devState >> 8) & 0xff
??cb_GetDeviceInfo_9:
        MOV     ?V0 + 2,#0x0
        MOV     R0,#?V0 + 0
        LCALL   ?PUSH_XSTACK_I_THREE
        CFI CFA_XSP16 add(XSP16, 14)
        MOV     R4,#0x1
        SJMP    ??cb_GetDeviceInfo_10
        CFI CFA_XSP16 add(XSP16, 11)
//  117       break;
//  118     case ZB_INFO_IEEE_ADDR:
//  119       osal_memcpy(pValue, &aExtendedAddress, Z_EXTADDR_LEN);
??cb_GetDeviceInfo_1:
        ; Setup parameters for call to function osal_memcpy
        MOV     ?V0 + 0,#aExtendedAddress & 0xff
        MOV     ?V0 + 1,#(aExtendedAddress >> 8) & 0xff
        SJMP    ??cb_GetDeviceInfo_11
//  120       break;
//  121     case ZB_INFO_SHORT_ADDR:
//  122       osal_memcpy(pValue, &_NIB.nwkDevAddress, sizeof(uint16));
??cb_GetDeviceInfo_2:
        ; Setup parameters for call to function osal_memcpy
        MOV     ?V0 + 0,#(_NIB + 20) & 0xff
        MOV     ?V0 + 1,#((_NIB + 20) >> 8) & 0xff
??cb_GetDeviceInfo_12:
        MOV     ?V0 + 2,#0x0
        MOV     R0,#?V0 + 0
        LCALL   ?PUSH_XSTACK_I_THREE
        CFI CFA_XSP16 add(XSP16, 14)
        MOV     R4,#0x2
        SJMP    ??cb_GetDeviceInfo_10
        CFI CFA_XSP16 add(XSP16, 11)
//  123       break;
//  124     case ZB_INFO_PARENT_SHORT_ADDR:
//  125       osal_memcpy(pValue, &_NIB.nwkCoordAddress, sizeof(uint16));
??cb_GetDeviceInfo_3:
        ; Setup parameters for call to function osal_memcpy
        MOV     ?V0 + 0,#(_NIB + 23) & 0xff
        MOV     ?V0 + 1,#((_NIB + 23) >> 8) & 0xff
        SJMP    ??cb_GetDeviceInfo_12
//  126       break;
//  127     case ZB_INFO_PARENT_IEEE_ADDR:
//  128       osal_memcpy(pValue, &_NIB.nwkCoordExtAddress, Z_EXTADDR_LEN);
??cb_GetDeviceInfo_4:
        ; Setup parameters for call to function osal_memcpy
        MOV     ?V0 + 0,#(_NIB + 25) & 0xff
        MOV     ?V0 + 1,#((_NIB + 25) >> 8) & 0xff
        SJMP    ??cb_GetDeviceInfo_11
//  129       break;
//  130     case ZB_INFO_CHANNEL:
//  131       osal_memcpy(pValue, &_NIB.nwkLogicalChannel, sizeof(uint8));
??cb_GetDeviceInfo_5:
        ; Setup parameters for call to function osal_memcpy
        MOV     ?V0 + 0,#(_NIB + 22) & 0xff
        MOV     ?V0 + 1,#((_NIB + 22) >> 8) & 0xff
        SJMP    ??cb_GetDeviceInfo_9
//  132       break;
//  133     case ZB_INFO_PAN_ID:
//  134       osal_memcpy(pValue, &_NIB.nwkPanId, sizeof(uint16));
??cb_GetDeviceInfo_6:
        ; Setup parameters for call to function osal_memcpy
        MOV     ?V0 + 0,#(_NIB + 33) & 0xff
        MOV     ?V0 + 1,#((_NIB + 33) >> 8) & 0xff
        SJMP    ??cb_GetDeviceInfo_12
//  135       break;
//  136     case ZB_INFO_EXT_PAN_ID:
//  137       osal_memcpy(pValue, &_NIB.extendedPANID, Z_EXTADDR_LEN);
??cb_GetDeviceInfo_7:
        ; Setup parameters for call to function osal_memcpy
        MOV     ?V0 + 0,#(_NIB + 53) & 0xff
        MOV     ?V0 + 1,#((_NIB + 53) >> 8) & 0xff
??cb_GetDeviceInfo_11:
        MOV     ?V0 + 2,#0x0
        MOV     R0,#?V0 + 0
        LCALL   ?PUSH_XSTACK_I_THREE
        CFI CFA_XSP16 add(XSP16, 14)
        MOV     R4,#0x8
??cb_GetDeviceInfo_10:
        MOV     R5,#0x0
        LCALL   ??osal_memcpy?relay
        MOV     A,#0x3
        LCALL   ?DEALLOC_XSTACK8
        CFI CFA_XSP16 add(XSP16, 11)
//  138       break;
//  139   }
//  140 }
??cb_GetDeviceInfo_8:
        MOV     R7,#0x3
        LJMP    ?BANKED_LEAVE_XDATA
        CFI EndBlock cfiBlock0
//  141 
//  142 

        RSEG BANKED_CODE:CODE:NOROOT(0)
//  143 void CAPI_SendCback( uint8 event, uint8 status, uint16 data )
CAPI_SendCback:
        CFI Block cfiBlock1 Using cfiCommon0
        CFI Function CAPI_SendCback
        CODE
//  144 {
        FUNCALL CAPI_SendCback, osal_msg_allocate
        LOCFRAME ISTACK, 0, STACK
        LOCFRAME PSTACK, 0, STACK
        LOCFRAME XSTACK, 12, STACK
        LOCFRAME IOVERLAY, 0, STATIC
        LOCFRAME DOVERLAY, 0, STATIC
        ARGFRAME ISTACK, 0, STACK
        ARGFRAME PSTACK, 0, STACK
        ARGFRAME XSTACK, 12, STACK
        ARGFRAME IOVERLAY, 0, STATIC
        ARGFRAME DOVERLAY, 0, STATIC
        FUNCALL CAPI_SendCback, osal_msg_send
        LOCFRAME ISTACK, 0, STACK
        LOCFRAME PSTACK, 0, STACK
        LOCFRAME XSTACK, 12, STACK
        LOCFRAME IOVERLAY, 0, STATIC
        LOCFRAME DOVERLAY, 0, STATIC
        ARGFRAME ISTACK, 0, STACK
        ARGFRAME PSTACK, 0, STACK
        ARGFRAME XSTACK, 12, STACK
        ARGFRAME IOVERLAY, 0, STATIC
        ARGFRAME DOVERLAY, 0, STATIC
        MOV     A,#-0xc
        LCALL   ?BANKED_ENTER_XDATA
        CFI DPH0 load(1, XDATA, add(CFA_XSP16, literal(-1)))
        CFI DPL0 load(1, XDATA, add(CFA_XSP16, literal(-2)))
        CFI ?BRET_EXT load(1, XDATA, add(CFA_XSP16, literal(-3)))
        CFI ?RET_HIGH load(1, XDATA, add(CFA_XSP16, literal(-4)))
        CFI ?RET_LOW load(1, XDATA, add(CFA_XSP16, literal(-5)))
        CFI R7 load(1, XDATA, add(CFA_XSP16, literal(-6)))
        CFI V3 load(1, XDATA, add(CFA_XSP16, literal(-7)))
        CFI V2 load(1, XDATA, add(CFA_XSP16, literal(-8)))
        CFI V1 load(1, XDATA, add(CFA_XSP16, literal(-9)))
        CFI V0 load(1, XDATA, add(CFA_XSP16, literal(-10)))
        CFI VB load(1, XDATA, add(CFA_XSP16, literal(-11)))
        CFI R6 load(1, XDATA, add(CFA_XSP16, literal(-12)))
        CFI CFA_SP SP+0
        CFI CFA_XSP16 add(XSP16, 12)
        ; Saved register size: 12
        ; Auto size: 0
        MOV     ?V0 + 0,R1
        MOV     ?V0 + 1,R2
        MOV     A,R4
        MOV     R6,A
        MOV     A,R5
        MOV     R7,A
//  145   sapi_CbackEvent_t *pMsg;
//  146 
//  147   pMsg = (sapi_CbackEvent_t *)osal_msg_allocate( sizeof(sapi_CbackEvent_t) );
        ; Setup parameters for call to function osal_msg_allocate
        MOV     R2,#0x4
        MOV     R3,#0x0
        LCALL   ??osal_msg_allocate?relay
//  148   if( pMsg )
        MOV     A,R2
        ORL     A,R3
        JZ      ??CAPI_SendCback_0
//  149   {
//  150     pMsg->hdr.event = event;
        MOV     DPL,R2
        MOV     DPH,R3
        MOV     A,?V0 + 0
        MOVX    @DPTR,A
//  151     pMsg->hdr.status = status;
        INC     DPTR
        MOV     A,?V0 + 1
        MOVX    @DPTR,A
//  152     pMsg->data = data;
        MOV     DPL,R2
        MOV     DPH,R3
        INC     DPTR
        INC     DPTR
        MOV     A,R6
        MOVX    @DPTR,A
        INC     DPTR
        MOV     A,R7
        MOVX    @DPTR,A
//  153 
//  154     osal_msg_send( GenericApp_TaskID, (uint8 *)pMsg );
        ; Setup parameters for call to function osal_msg_send
        MOV     DPTR,#GenericApp_TaskID
        MOVX    A,@DPTR
        MOV     R1,A
        LCALL   ??osal_msg_send?relay
        CFI EndBlock cfiBlock1
//  155   }
//  156 
//  157 }
??CAPI_SendCback_0:
        REQUIRE ?Subroutine0
        ; // Fall through to label ?Subroutine0

        RSEG BANKED_CODE:CODE:NOROOT(0)
?Subroutine0:
        CFI Block cfiBlock2 Using cfiCommon0
        CFI NoFunction
        CFI CFA_SP SP+0
        CFI CFA_XSP16 add(XSP16, 12)
        CFI VB load(1, XDATA, add(CFA_XSP16, literal(-11)))
        CFI DPL0 load(1, XDATA, add(CFA_XSP16, literal(-2)))
        CFI DPH0 load(1, XDATA, add(CFA_XSP16, literal(-1)))
        CFI R6 load(1, XDATA, add(CFA_XSP16, literal(-12)))
        CFI R7 load(1, XDATA, add(CFA_XSP16, literal(-6)))
        CFI V0 load(1, XDATA, add(CFA_XSP16, literal(-10)))
        CFI V1 load(1, XDATA, add(CFA_XSP16, literal(-9)))
        CFI V2 load(1, XDATA, add(CFA_XSP16, literal(-8)))
        CFI V3 load(1, XDATA, add(CFA_XSP16, literal(-7)))
        CFI ?BRET_EXT load(1, XDATA, add(CFA_XSP16, literal(-3)))
        CFI ?RET_HIGH load(1, XDATA, add(CFA_XSP16, literal(-4)))
        CFI ?RET_LOW load(1, XDATA, add(CFA_XSP16, literal(-5)))
        MOV     R7,#0x4
        LJMP    ?BANKED_LEAVE_XDATA
        CFI EndBlock cfiBlock2
//  158 

        RSEG BANKED_CODE:CODE:NOROOT(0)
//  159 void cb_SendDataRequest ( uint16 destination, uint16 commandId, uint8 len,
cb_SendDataRequest:
        CFI Block cfiBlock3 Using cfiCommon0
        CFI Function cb_SendDataRequest
        CODE
//  160                           uint8 *pData, uint8 handle, uint8 txOptions, uint8 radius )
//  161 {
        FUNCALL cb_SendDataRequest, NLME_IsAddressBroadcast
        LOCFRAME ISTACK, 0, STACK
        LOCFRAME PSTACK, 0, STACK
        LOCFRAME XSTACK, 27, STACK
        LOCFRAME IOVERLAY, 0, STATIC
        LOCFRAME DOVERLAY, 0, STATIC
        ARGFRAME ISTACK, 0, STACK
        ARGFRAME PSTACK, 0, STACK
        ARGFRAME XSTACK, 27, STACK
        ARGFRAME IOVERLAY, 0, STATIC
        ARGFRAME DOVERLAY, 0, STATIC
        FUNCALL cb_SendDataRequest, AF_DataRequest
        LOCFRAME ISTACK, 0, STACK
        LOCFRAME PSTACK, 0, STACK
        LOCFRAME XSTACK, 36, STACK
        LOCFRAME IOVERLAY, 0, STATIC
        LOCFRAME DOVERLAY, 0, STATIC
        ARGFRAME ISTACK, 0, STACK
        ARGFRAME PSTACK, 0, STACK
        ARGFRAME XSTACK, 36, STACK
        ARGFRAME IOVERLAY, 0, STATIC
        ARGFRAME DOVERLAY, 0, STATIC
        FUNCALL cb_SendDataRequest, CAPI_SendCback
        LOCFRAME ISTACK, 0, STACK
        LOCFRAME PSTACK, 0, STACK
        LOCFRAME XSTACK, 27, STACK
        LOCFRAME IOVERLAY, 0, STATIC
        LOCFRAME DOVERLAY, 0, STATIC
        ARGFRAME ISTACK, 0, STACK
        ARGFRAME PSTACK, 0, STACK
        ARGFRAME XSTACK, 27, STACK
        ARGFRAME IOVERLAY, 0, STATIC
        ARGFRAME DOVERLAY, 0, STATIC
        MOV     A,#-0xf
        LCALL   ?BANKED_ENTER_XDATA
        CFI DPH0 load(1, XDATA, add(CFA_XSP16, literal(-1)))
        CFI DPL0 load(1, XDATA, add(CFA_XSP16, literal(-2)))
        CFI ?BRET_EXT load(1, XDATA, add(CFA_XSP16, literal(-3)))
        CFI ?RET_HIGH load(1, XDATA, add(CFA_XSP16, literal(-4)))
        CFI ?RET_LOW load(1, XDATA, add(CFA_XSP16, literal(-5)))
        CFI R7 load(1, XDATA, add(CFA_XSP16, literal(-6)))
        CFI V6 load(1, XDATA, add(CFA_XSP16, literal(-7)))
        CFI V5 load(1, XDATA, add(CFA_XSP16, literal(-8)))
        CFI V4 load(1, XDATA, add(CFA_XSP16, literal(-9)))
        CFI V3 load(1, XDATA, add(CFA_XSP16, literal(-10)))
        CFI V2 load(1, XDATA, add(CFA_XSP16, literal(-11)))
        CFI V1 load(1, XDATA, add(CFA_XSP16, literal(-12)))
        CFI V0 load(1, XDATA, add(CFA_XSP16, literal(-13)))
        CFI VB load(1, XDATA, add(CFA_XSP16, literal(-14)))
        CFI R6 load(1, XDATA, add(CFA_XSP16, literal(-15)))
        CFI CFA_SP SP+0
        CFI CFA_XSP16 add(XSP16, 15)
        ; Saved register size: 15
        ; Auto size: 12
        MOV     A,#-0xc
        LCALL   ?ALLOC_XSTACK8
        CFI CFA_XSP16 add(XSP16, 27)
        MOV     ?V0 + 2,R4
        MOV     ?V0 + 3,R5
        MOV     ?V0 + 6,R1
        MOV     A,#0x1b
        LCALL   ?XSTACK_DISP0_8
        MOVX    A,@DPTR
        MOV     ?V0 + 4,A
        INC     DPTR
        MOVX    A,@DPTR
        MOV     ?V0 + 5,A
        MOV     A,#0x1e
        LCALL   ?XSTACK_DISP0_8
        MOVX    A,@DPTR
        MOV     R6,A
        MOV     A,#0x1f
        LCALL   ?XSTACK_DISP0_8
        MOVX    A,@DPTR
        MOV     R7,A
//  162   afStatus_t status;
//  163   afAddrType_t dstAddr;
//  164 
//  165   txOptions |= AF_DISCV_ROUTE;
        MOV     A,R6
        SETB    0xE0 /* A   */.5
        MOV     R6,A
//  166 
//  167   // Set the destination address
//  168   if (destination == ZB_BINDING_ADDR)
        MOV     A,#-0x2
        XRL     A,R2
        JNZ     ??cb_SendDataRequest_0
        MOV     A,#-0x1
        XRL     A,R3
??cb_SendDataRequest_0:
        JNZ     ??cb_SendDataRequest_1
//  169   {
//  170     // Binding
//  171     dstAddr.addrMode = afAddrNotPresent;
        MOV     A,#0x8
        LCALL   ?XSTACK_DISP0_8
        CLR     A
        MOVX    @DPTR,A
        SJMP    ??cb_SendDataRequest_2
//  172   }
//  173   else
//  174   {
//  175     // Use short address
//  176     dstAddr.addr.shortAddr = destination;
??cb_SendDataRequest_1:
        MOV     DPL,?XSP + 0
        MOV     DPH,?XSP + 1
        MOV     A,R2
        MOVX    @DPTR,A
        INC     DPTR
        MOV     A,R3
        MOVX    @DPTR,A
//  177     dstAddr.addrMode = afAddr16Bit;
        MOV     A,#0x8
        LCALL   ?XSTACK_DISP0_8
        MOV     A,#0x2
        MOVX    @DPTR,A
//  178 
//  179     if ( ADDR_NOT_BCAST != NLME_IsAddressBroadcast( destination ) )
        ; Setup parameters for call to function NLME_IsAddressBroadcast
        LCALL   ??NLME_IsAddressBroadcast?relay
        MOV     A,R1
        JZ      ??cb_SendDataRequest_2
//  180     {
//  181       txOptions &= ~AF_ACK_REQUEST;
        MOV     A,R6
        CLR     0xE0 /* A   */.4
        MOV     R6,A
//  182     }
//  183   }
//  184 
//  185   dstAddr.panId = 0;                                    // Not an inter-pan message.
??cb_SendDataRequest_2:
        MOV     A,#0xa
        LCALL   ?XSTACK_DISP0_8
        CLR     A
        MOVX    @DPTR,A
        INC     DPTR
        MOVX    @DPTR,A
//  186   dstAddr.endPoint = GENERICAPP_ENDPOINT;  // Set the endpoint.
        MOV     A,#0x9
        LCALL   ?XSTACK_DISP0_8
        MOV     A,#0xa
        MOVX    @DPTR,A
//  187 
//  188   // Send the message
//  189   status = AF_DataRequest(&dstAddr, &GenericApp_epDesc, commandId, len,
//  190                           pData, &handle, txOptions, radius);
        ; Setup parameters for call to function AF_DataRequest
        MOV     A,R7
        MOV     ?V0 + 0,A
        MOV     R0,#?V0 + 0
        LCALL   ?PUSH_XSTACK_I_ONE
        CFI CFA_XSP16 add(XSP16, 28)
        MOV     A,#0x1e
        LCALL   ?XSTACK_DISP0_8
        MOV     ?V0 + 0,DPL
        MOV     ?V0 + 1,DPH
        MOV     R0,#?V0 + 0
        LCALL   ?PUSH_XSTACK_I_TWO
        CFI CFA_XSP16 add(XSP16, 30)
        MOV     R0,#?V0 + 4
        LCALL   ?PUSH_XSTACK_I_TWO
        CFI CFA_XSP16 add(XSP16, 32)
        MOV     ?V0 + 0,?V0 + 6
        MOV     ?V0 + 1,#0x0
        MOV     R0,#?V0 + 0
        LCALL   ?PUSH_XSTACK_I_TWO
        CFI CFA_XSP16 add(XSP16, 34)
        MOV     R0,#?V0 + 2
        LCALL   ?PUSH_XSTACK_I_TWO
        CFI CFA_XSP16 add(XSP16, 36)
        MOV     A,R6
        MOV     R1,A
        MOV     R4,#GenericApp_epDesc & 0xff
        MOV     R5,#(GenericApp_epDesc >> 8) & 0xff
        MOV     A,#0x9
        LCALL   ?XSTACK_DISP0_8
        LCALL   ?Subroutine7 & 0xFFFF
??CrossCallReturnLabel_16:
        LCALL   ?DEALLOC_XSTACK8
        CFI CFA_XSP16 add(XSP16, 27)
        MOV     A,R1
        MOV     R2,A
//  191 
//  192   if (status != afStatus_SUCCESS)
        JZ      ??cb_SendDataRequest_3
//  193   {
//  194     CAPI_SendCback( SAPICB_DATA_CNF, status, handle );
        ; Setup parameters for call to function CAPI_SendCback
        MOV     A,#0x1d
        LCALL   ?XSTACK_DISP0_8
        MOVX    A,@DPTR
        MOV     R4,A
        MOV     R5,#0x0
        MOV     R1,#-0x20
        LCALL   ??CAPI_SendCback?relay
//  195   }
//  196 }
??cb_SendDataRequest_3:
        MOV     A,#0xc
        LCALL   ?DEALLOC_XSTACK8
        CFI CFA_XSP16 add(XSP16, 15)
        MOV     R7,#0x7
        LJMP    ?BANKED_LEAVE_XDATA
        CFI EndBlock cfiBlock3
//  197 
//  198 

        RSEG BANKED_CODE:CODE:NOROOT(0)
//  199 void Serial_callBack(uint8 port, uint8 event)
Serial_callBack:
        CFI Block cfiBlock4 Using cfiCommon0
        CFI Function Serial_callBack
        CODE
//  200 {
        FUNCALL Serial_callBack, HalUARTRead
        LOCFRAME ISTACK, 0, STACK
        LOCFRAME PSTACK, 0, STACK
        LOCFRAME XSTACK, 220, STACK
        LOCFRAME IOVERLAY, 0, STATIC
        LOCFRAME DOVERLAY, 0, STATIC
        ARGFRAME ISTACK, 0, STACK
        ARGFRAME PSTACK, 0, STACK
        ARGFRAME XSTACK, 220, STACK
        ARGFRAME IOVERLAY, 0, STATIC
        ARGFRAME DOVERLAY, 0, STATIC
        FUNCALL Serial_callBack, UART_Send_String
        LOCFRAME ISTACK, 0, STACK
        LOCFRAME PSTACK, 0, STACK
        LOCFRAME XSTACK, 220, STACK
        LOCFRAME IOVERLAY, 0, STATIC
        LOCFRAME DOVERLAY, 0, STATIC
        ARGFRAME ISTACK, 0, STACK
        ARGFRAME PSTACK, 0, STACK
        ARGFRAME XSTACK, 220, STACK
        ARGFRAME IOVERLAY, 0, STATIC
        ARGFRAME DOVERLAY, 0, STATIC
        FUNCALL Serial_callBack, UART_Send_String
        LOCFRAME ISTACK, 0, STACK
        LOCFRAME PSTACK, 0, STACK
        LOCFRAME XSTACK, 220, STACK
        LOCFRAME IOVERLAY, 0, STATIC
        LOCFRAME DOVERLAY, 0, STATIC
        ARGFRAME ISTACK, 0, STACK
        ARGFRAME PSTACK, 0, STACK
        ARGFRAME XSTACK, 220, STACK
        ARGFRAME IOVERLAY, 0, STATIC
        ARGFRAME DOVERLAY, 0, STATIC
        FUNCALL Serial_callBack, UART_Send_String
        LOCFRAME ISTACK, 0, STACK
        LOCFRAME PSTACK, 0, STACK
        LOCFRAME XSTACK, 220, STACK
        LOCFRAME IOVERLAY, 0, STATIC
        LOCFRAME DOVERLAY, 0, STATIC
        ARGFRAME ISTACK, 0, STACK
        ARGFRAME PSTACK, 0, STACK
        ARGFRAME XSTACK, 220, STACK
        ARGFRAME IOVERLAY, 0, STATIC
        ARGFRAME DOVERLAY, 0, STATIC
        FUNCALL Serial_callBack, UART_Send_String
        LOCFRAME ISTACK, 0, STACK
        LOCFRAME PSTACK, 0, STACK
        LOCFRAME XSTACK, 220, STACK
        LOCFRAME IOVERLAY, 0, STATIC
        LOCFRAME DOVERLAY, 0, STATIC
        ARGFRAME ISTACK, 0, STACK
        ARGFRAME PSTACK, 0, STACK
        ARGFRAME XSTACK, 220, STACK
        ARGFRAME IOVERLAY, 0, STATIC
        ARGFRAME DOVERLAY, 0, STATIC
        FUNCALL Serial_callBack, NLME_GetExtAddr
        LOCFRAME ISTACK, 0, STACK
        LOCFRAME PSTACK, 0, STACK
        LOCFRAME XSTACK, 220, STACK
        LOCFRAME IOVERLAY, 0, STATIC
        LOCFRAME DOVERLAY, 0, STATIC
        ARGFRAME ISTACK, 0, STACK
        ARGFRAME PSTACK, 0, STACK
        ARGFRAME XSTACK, 220, STACK
        ARGFRAME IOVERLAY, 0, STATIC
        ARGFRAME DOVERLAY, 0, STATIC
        FUNCALL Serial_callBack, UART_Send_String
        LOCFRAME ISTACK, 0, STACK
        LOCFRAME PSTACK, 0, STACK
        LOCFRAME XSTACK, 220, STACK
        LOCFRAME IOVERLAY, 0, STATIC
        LOCFRAME DOVERLAY, 0, STATIC
        ARGFRAME ISTACK, 0, STACK
        ARGFRAME PSTACK, 0, STACK
        ARGFRAME XSTACK, 220, STACK
        ARGFRAME IOVERLAY, 0, STATIC
        ARGFRAME DOVERLAY, 0, STATIC
        FUNCALL Serial_callBack, set_coordi
        LOCFRAME ISTACK, 0, STACK
        LOCFRAME PSTACK, 0, STACK
        LOCFRAME XSTACK, 220, STACK
        LOCFRAME IOVERLAY, 0, STATIC
        LOCFRAME DOVERLAY, 0, STATIC
        ARGFRAME ISTACK, 0, STACK
        ARGFRAME PSTACK, 0, STACK
        ARGFRAME XSTACK, 220, STACK
        ARGFRAME IOVERLAY, 0, STATIC
        ARGFRAME DOVERLAY, 0, STATIC
        FUNCALL Serial_callBack, set_router
        LOCFRAME ISTACK, 0, STACK
        LOCFRAME PSTACK, 0, STACK
        LOCFRAME XSTACK, 220, STACK
        LOCFRAME IOVERLAY, 0, STATIC
        LOCFRAME DOVERLAY, 0, STATIC
        ARGFRAME ISTACK, 0, STACK
        ARGFRAME PSTACK, 0, STACK
        ARGFRAME XSTACK, 220, STACK
        ARGFRAME IOVERLAY, 0, STATIC
        ARGFRAME DOVERLAY, 0, STATIC
        FUNCALL Serial_callBack, AssocCount
        LOCFRAME ISTACK, 0, STACK
        LOCFRAME PSTACK, 0, STACK
        LOCFRAME XSTACK, 220, STACK
        LOCFRAME IOVERLAY, 0, STATIC
        LOCFRAME DOVERLAY, 0, STATIC
        ARGFRAME ISTACK, 0, STACK
        ARGFRAME PSTACK, 0, STACK
        ARGFRAME XSTACK, 220, STACK
        ARGFRAME IOVERLAY, 0, STATIC
        ARGFRAME DOVERLAY, 0, STATIC
        FUNCALL Serial_callBack, UART_Send_String
        LOCFRAME ISTACK, 0, STACK
        LOCFRAME PSTACK, 0, STACK
        LOCFRAME XSTACK, 220, STACK
        LOCFRAME IOVERLAY, 0, STATIC
        LOCFRAME DOVERLAY, 0, STATIC
        ARGFRAME ISTACK, 0, STACK
        ARGFRAME PSTACK, 0, STACK
        ARGFRAME XSTACK, 220, STACK
        ARGFRAME IOVERLAY, 0, STATIC
        ARGFRAME DOVERLAY, 0, STATIC
        FUNCALL Serial_callBack, AF_DataRequest
        LOCFRAME ISTACK, 0, STACK
        LOCFRAME PSTACK, 0, STACK
        LOCFRAME XSTACK, 229, STACK
        LOCFRAME IOVERLAY, 0, STATIC
        LOCFRAME DOVERLAY, 0, STATIC
        ARGFRAME ISTACK, 0, STACK
        ARGFRAME PSTACK, 0, STACK
        ARGFRAME XSTACK, 229, STACK
        ARGFRAME IOVERLAY, 0, STATIC
        ARGFRAME DOVERLAY, 0, STATIC
        FUNCALL Serial_callBack, AF_DataRequest
        LOCFRAME ISTACK, 0, STACK
        LOCFRAME PSTACK, 0, STACK
        LOCFRAME XSTACK, 229, STACK
        LOCFRAME IOVERLAY, 0, STATIC
        LOCFRAME DOVERLAY, 0, STATIC
        ARGFRAME ISTACK, 0, STACK
        ARGFRAME PSTACK, 0, STACK
        ARGFRAME XSTACK, 229, STACK
        ARGFRAME IOVERLAY, 0, STATIC
        ARGFRAME DOVERLAY, 0, STATIC
        FUNCALL Serial_callBack, uprint
        LOCFRAME ISTACK, 0, STACK
        LOCFRAME PSTACK, 0, STACK
        LOCFRAME XSTACK, 220, STACK
        LOCFRAME IOVERLAY, 0, STATIC
        LOCFRAME DOVERLAY, 0, STATIC
        ARGFRAME ISTACK, 0, STACK
        ARGFRAME PSTACK, 0, STACK
        ARGFRAME XSTACK, 220, STACK
        ARGFRAME IOVERLAY, 0, STATIC
        ARGFRAME DOVERLAY, 0, STATIC
        FUNCALL Serial_callBack, HalLedSet
        LOCFRAME ISTACK, 0, STACK
        LOCFRAME PSTACK, 0, STACK
        LOCFRAME XSTACK, 220, STACK
        LOCFRAME IOVERLAY, 0, STATIC
        LOCFRAME DOVERLAY, 0, STATIC
        ARGFRAME ISTACK, 0, STACK
        ARGFRAME PSTACK, 0, STACK
        ARGFRAME XSTACK, 220, STACK
        ARGFRAME IOVERLAY, 0, STATIC
        ARGFRAME DOVERLAY, 0, STATIC
        FUNCALL Serial_callBack, NLME_GetShortAddr
        LOCFRAME ISTACK, 0, STACK
        LOCFRAME PSTACK, 0, STACK
        LOCFRAME XSTACK, 220, STACK
        LOCFRAME IOVERLAY, 0, STATIC
        LOCFRAME DOVERLAY, 0, STATIC
        ARGFRAME ISTACK, 0, STACK
        ARGFRAME PSTACK, 0, STACK
        ARGFRAME XSTACK, 220, STACK
        ARGFRAME IOVERLAY, 0, STATIC
        ARGFRAME DOVERLAY, 0, STATIC
        FUNCALL Serial_callBack, ZDP_EndDeviceBindReq
        LOCFRAME ISTACK, 0, STACK
        LOCFRAME PSTACK, 0, STACK
        LOCFRAME XSTACK, 229, STACK
        LOCFRAME IOVERLAY, 0, STATIC
        LOCFRAME DOVERLAY, 0, STATIC
        ARGFRAME ISTACK, 0, STACK
        ARGFRAME PSTACK, 0, STACK
        ARGFRAME XSTACK, 229, STACK
        ARGFRAME IOVERLAY, 0, STATIC
        ARGFRAME DOVERLAY, 0, STATIC
        FUNCALL Serial_callBack, uprint
        LOCFRAME ISTACK, 0, STACK
        LOCFRAME PSTACK, 0, STACK
        LOCFRAME XSTACK, 220, STACK
        LOCFRAME IOVERLAY, 0, STATIC
        LOCFRAME DOVERLAY, 0, STATIC
        ARGFRAME ISTACK, 0, STACK
        ARGFRAME PSTACK, 0, STACK
        ARGFRAME XSTACK, 220, STACK
        ARGFRAME IOVERLAY, 0, STATIC
        ARGFRAME DOVERLAY, 0, STATIC
        FUNCALL Serial_callBack, HalLedSet
        LOCFRAME ISTACK, 0, STACK
        LOCFRAME PSTACK, 0, STACK
        LOCFRAME XSTACK, 220, STACK
        LOCFRAME IOVERLAY, 0, STATIC
        LOCFRAME DOVERLAY, 0, STATIC
        ARGFRAME ISTACK, 0, STACK
        ARGFRAME PSTACK, 0, STACK
        ARGFRAME XSTACK, 220, STACK
        ARGFRAME IOVERLAY, 0, STATIC
        ARGFRAME DOVERLAY, 0, STATIC
        FUNCALL Serial_callBack, ZDP_MatchDescReq
        LOCFRAME ISTACK, 0, STACK
        LOCFRAME PSTACK, 0, STACK
        LOCFRAME XSTACK, 228, STACK
        LOCFRAME IOVERLAY, 0, STATIC
        LOCFRAME DOVERLAY, 0, STATIC
        ARGFRAME ISTACK, 0, STACK
        ARGFRAME PSTACK, 0, STACK
        ARGFRAME XSTACK, 228, STACK
        ARGFRAME IOVERLAY, 0, STATIC
        ARGFRAME DOVERLAY, 0, STATIC
        FUNCALL Serial_callBack, strncpy
        LOCFRAME ISTACK, 0, STACK
        LOCFRAME PSTACK, 0, STACK
        LOCFRAME XSTACK, 222, STACK
        LOCFRAME IOVERLAY, 0, STATIC
        LOCFRAME DOVERLAY, 0, STATIC
        ARGFRAME ISTACK, 0, STACK
        ARGFRAME PSTACK, 0, STACK
        ARGFRAME XSTACK, 222, STACK
        ARGFRAME IOVERLAY, 0, STATIC
        ARGFRAME DOVERLAY, 0, STATIC
        FUNCALL Serial_callBack, strncpy
        LOCFRAME ISTACK, 0, STACK
        LOCFRAME PSTACK, 0, STACK
        LOCFRAME XSTACK, 222, STACK
        LOCFRAME IOVERLAY, 0, STATIC
        LOCFRAME DOVERLAY, 0, STATIC
        ARGFRAME ISTACK, 0, STACK
        ARGFRAME PSTACK, 0, STACK
        ARGFRAME XSTACK, 222, STACK
        ARGFRAME IOVERLAY, 0, STATIC
        ARGFRAME DOVERLAY, 0, STATIC
        FUNCALL Serial_callBack, strtol
        LOCFRAME ISTACK, 0, STACK
        LOCFRAME PSTACK, 0, STACK
        LOCFRAME XSTACK, 222, STACK
        LOCFRAME IOVERLAY, 0, STATIC
        LOCFRAME DOVERLAY, 0, STATIC
        ARGFRAME ISTACK, 0, STACK
        ARGFRAME PSTACK, 0, STACK
        ARGFRAME XSTACK, 222, STACK
        ARGFRAME IOVERLAY, 0, STATIC
        ARGFRAME DOVERLAY, 0, STATIC
        FUNCALL Serial_callBack, strtol
        LOCFRAME ISTACK, 0, STACK
        LOCFRAME PSTACK, 0, STACK
        LOCFRAME XSTACK, 222, STACK
        LOCFRAME IOVERLAY, 0, STATIC
        LOCFRAME DOVERLAY, 0, STATIC
        ARGFRAME ISTACK, 0, STACK
        ARGFRAME PSTACK, 0, STACK
        ARGFRAME XSTACK, 222, STACK
        ARGFRAME IOVERLAY, 0, STATIC
        ARGFRAME DOVERLAY, 0, STATIC
        FUNCALL Serial_callBack, set_panid
        LOCFRAME ISTACK, 0, STACK
        LOCFRAME PSTACK, 0, STACK
        LOCFRAME XSTACK, 220, STACK
        LOCFRAME IOVERLAY, 0, STATIC
        LOCFRAME DOVERLAY, 0, STATIC
        ARGFRAME ISTACK, 0, STACK
        ARGFRAME PSTACK, 0, STACK
        ARGFRAME XSTACK, 220, STACK
        ARGFRAME IOVERLAY, 0, STATIC
        ARGFRAME DOVERLAY, 0, STATIC
        FUNCALL Serial_callBack, zgWriteStartupOptions
        LOCFRAME ISTACK, 0, STACK
        LOCFRAME PSTACK, 0, STACK
        LOCFRAME XSTACK, 220, STACK
        LOCFRAME IOVERLAY, 0, STATIC
        LOCFRAME DOVERLAY, 0, STATIC
        ARGFRAME ISTACK, 0, STACK
        ARGFRAME PSTACK, 0, STACK
        ARGFRAME XSTACK, 220, STACK
        ARGFRAME IOVERLAY, 0, STATIC
        ARGFRAME DOVERLAY, 0, STATIC
        FUNCALL Serial_callBack, sysPingReqRcvd
        LOCFRAME ISTACK, 0, STACK
        LOCFRAME PSTACK, 0, STACK
        LOCFRAME XSTACK, 220, STACK
        LOCFRAME IOVERLAY, 0, STATIC
        LOCFRAME DOVERLAY, 0, STATIC
        ARGFRAME ISTACK, 0, STACK
        ARGFRAME PSTACK, 0, STACK
        ARGFRAME XSTACK, 220, STACK
        ARGFRAME IOVERLAY, 0, STATIC
        ARGFRAME DOVERLAY, 0, STATIC
        FUNCALL Serial_callBack, NLME_UpdateNV
        LOCFRAME ISTACK, 0, STACK
        LOCFRAME PSTACK, 0, STACK
        LOCFRAME XSTACK, 220, STACK
        LOCFRAME IOVERLAY, 0, STATIC
        LOCFRAME DOVERLAY, 0, STATIC
        ARGFRAME ISTACK, 0, STACK
        ARGFRAME PSTACK, 0, STACK
        ARGFRAME XSTACK, 220, STACK
        ARGFRAME IOVERLAY, 0, STATIC
        ARGFRAME DOVERLAY, 0, STATIC
        FUNCALL Serial_callBack, ZMacSetReq
        LOCFRAME ISTACK, 0, STACK
        LOCFRAME PSTACK, 0, STACK
        LOCFRAME XSTACK, 220, STACK
        LOCFRAME IOVERLAY, 0, STATIC
        LOCFRAME DOVERLAY, 0, STATIC
        ARGFRAME ISTACK, 0, STACK
        ARGFRAME PSTACK, 0, STACK
        ARGFRAME XSTACK, 220, STACK
        ARGFRAME IOVERLAY, 0, STATIC
        ARGFRAME DOVERLAY, 0, STATIC
        FUNCALL Serial_callBack, osal_nv_item_init
        LOCFRAME ISTACK, 0, STACK
        LOCFRAME PSTACK, 0, STACK
        LOCFRAME XSTACK, 222, STACK
        LOCFRAME IOVERLAY, 0, STATIC
        LOCFRAME DOVERLAY, 0, STATIC
        ARGFRAME ISTACK, 0, STACK
        ARGFRAME PSTACK, 0, STACK
        ARGFRAME XSTACK, 222, STACK
        ARGFRAME IOVERLAY, 0, STATIC
        ARGFRAME DOVERLAY, 0, STATIC
        FUNCALL Serial_callBack, osal_nv_write
        LOCFRAME ISTACK, 0, STACK
        LOCFRAME PSTACK, 0, STACK
        LOCFRAME XSTACK, 224, STACK
        LOCFRAME IOVERLAY, 0, STATIC
        LOCFRAME DOVERLAY, 0, STATIC
        ARGFRAME ISTACK, 0, STACK
        ARGFRAME PSTACK, 0, STACK
        ARGFRAME XSTACK, 224, STACK
        ARGFRAME IOVERLAY, 0, STATIC
        ARGFRAME DOVERLAY, 0, STATIC
        FUNCALL Serial_callBack, UART_Send_String
        LOCFRAME ISTACK, 0, STACK
        LOCFRAME PSTACK, 0, STACK
        LOCFRAME XSTACK, 220, STACK
        LOCFRAME IOVERLAY, 0, STATIC
        LOCFRAME DOVERLAY, 0, STATIC
        ARGFRAME ISTACK, 0, STACK
        ARGFRAME PSTACK, 0, STACK
        ARGFRAME XSTACK, 220, STACK
        ARGFRAME IOVERLAY, 0, STATIC
        ARGFRAME DOVERLAY, 0, STATIC
        FUNCALL Serial_callBack, ser_process
        LOCFRAME ISTACK, 0, STACK
        LOCFRAME PSTACK, 0, STACK
        LOCFRAME XSTACK, 220, STACK
        LOCFRAME IOVERLAY, 0, STATIC
        LOCFRAME DOVERLAY, 0, STATIC
        ARGFRAME ISTACK, 0, STACK
        ARGFRAME PSTACK, 0, STACK
        ARGFRAME XSTACK, 220, STACK
        ARGFRAME IOVERLAY, 0, STATIC
        ARGFRAME DOVERLAY, 0, STATIC
        FUNCALL Serial_callBack, AF_DataRequest
        LOCFRAME ISTACK, 0, STACK
        LOCFRAME PSTACK, 0, STACK
        LOCFRAME XSTACK, 229, STACK
        LOCFRAME IOVERLAY, 0, STATIC
        LOCFRAME DOVERLAY, 0, STATIC
        ARGFRAME ISTACK, 0, STACK
        ARGFRAME PSTACK, 0, STACK
        ARGFRAME XSTACK, 229, STACK
        ARGFRAME IOVERLAY, 0, STATIC
        ARGFRAME DOVERLAY, 0, STATIC
        MOV     A,#-0x10
        LCALL   ?BANKED_ENTER_XDATA
        CFI DPH0 load(1, XDATA, add(CFA_XSP16, literal(-1)))
        CFI DPL0 load(1, XDATA, add(CFA_XSP16, literal(-2)))
        CFI ?BRET_EXT load(1, XDATA, add(CFA_XSP16, literal(-3)))
        CFI ?RET_HIGH load(1, XDATA, add(CFA_XSP16, literal(-4)))
        CFI ?RET_LOW load(1, XDATA, add(CFA_XSP16, literal(-5)))
        CFI R7 load(1, XDATA, add(CFA_XSP16, literal(-6)))
        CFI V7 load(1, XDATA, add(CFA_XSP16, literal(-7)))
        CFI V6 load(1, XDATA, add(CFA_XSP16, literal(-8)))
        CFI V5 load(1, XDATA, add(CFA_XSP16, literal(-9)))
        CFI V4 load(1, XDATA, add(CFA_XSP16, literal(-10)))
        CFI V3 load(1, XDATA, add(CFA_XSP16, literal(-11)))
        CFI V2 load(1, XDATA, add(CFA_XSP16, literal(-12)))
        CFI V1 load(1, XDATA, add(CFA_XSP16, literal(-13)))
        CFI V0 load(1, XDATA, add(CFA_XSP16, literal(-14)))
        CFI VB load(1, XDATA, add(CFA_XSP16, literal(-15)))
        CFI R6 load(1, XDATA, add(CFA_XSP16, literal(-16)))
        CFI CFA_SP SP+0
        CFI CFA_XSP16 add(XSP16, 16)
        ; Saved register size: 16
        ; Auto size: 204
        MOV     A,#0x34
        LCALL   ?ALLOC_XSTACK8
        CFI CFA_XSP16 add(XSP16, 220)
//  201   char theMessageData[] = "Hello";
//  202   zAddrType_t dstAddr;
//  203   zAddrType_t ZAddr;
//  204   
//  205   afAddrType_t myaddr; // use for p2p
//  206   
//  207   char pbuf[3];
//  208   char pbuf1[3];
//  209   uint16 cmd;
//  210   
//  211   uint8 buff[128];
//  212   uint8 readBytes = 0;
//  213   
//  214   uint16 short_ddr;
//  215   uint16 panid;
//  216   uint8 *ieeeAddr;
//  217   
//  218   uint16 *p1;
//  219   
//  220   byte cnt = 0;
//  221   uint8 yy1;
//  222   uint8 yy2;
//  223   
//  224   uint8 i;
//  225   byte nr;
//  226   uint16 devlist[ NWK_MAX_DEVICES + 1];
//  227   associated_devices_t *adp; // delete devices
//  228   
//  229   //short_ddr = GenericApp_DstAddr.addr.shortAddr;
//  230   uint8 startOptions;    
//  231   uint8 logicalType;
//  232   
//  233   logicalType = (uint8)ZDO_Config_Node_Descriptor.LogicalType;
//  234   
//  235             
//  236   readBytes = HalUARTRead(SER_PORT, buff, 127);
        ; Setup parameters for call to function HalUARTRead
        MOV     R4,#0x7f
        MOV     R5,#0x0
        MOV     A,#0x20
        LCALL   ?XSTACK_DISP0_8
        MOV     R2,DPL
        MOV     R3,DPH
        MOV     R1,#0x0
        LCALL   ??HalUARTRead?relay
        MOV     A,R2
        MOV     ?V0 + 0,A
//  237   if (readBytes > 0)
        JNZ     $+5
        LJMP    ??Serial_callBack_0 & 0xFFFF
//  238   {
//  239     //HalUARTWrite( SER_PORT, "DataRead: ",10);
//  240     // HalUARTWrite( SER_PORT, buff, readBytes);
//  241     if(readBytes == 4)
        MOV     A,#0x4
        XRL     A,?V0 + 0
        JNZ     ??Serial_callBack_1
//  242     {
//  243       if(buff[0] == 'p' && buff[1] == 'i' && buff[2]=='n' && buff[3] == 'g')
        MOV     A,#0x20
        LCALL   ?XSTACK_DISP0_8
        MOVX    A,@DPTR
        XRL     A,#0x70
        JZ      $+5
        LJMP    ??Serial_callBack_2 & 0xFFFF
        MOV     A,#0x21
        LCALL   ?XSTACK_DISP0_8
        MOVX    A,@DPTR
        XRL     A,#0x69
        JZ      $+5
        LJMP    ??Serial_callBack_3 & 0xFFFF
        MOV     A,#0x22
        LCALL   ?XSTACK_DISP0_8
        MOVX    A,@DPTR
        XRL     A,#0x6e
        JZ      $+5
        LJMP    ??Serial_callBack_3 & 0xFFFF
        MOV     A,#0x23
        LCALL   ?XSTACK_DISP0_8
        MOVX    A,@DPTR
        XRL     A,#0x67
        JZ      $+5
        LJMP    ??Serial_callBack_3 & 0xFFFF
//  244       {
//  245           UART_Send_String( "pong", 4 );
        ; Setup parameters for call to function UART_Send_String
        MOV     R4,#0x4
        MOV     R5,#0x0
        MOV     R2,#`?<Constant "pong">` & 0xff
        MOV     R3,#(`?<Constant "pong">` >> 8) & 0xff
        LCALL   ??UART_Send_String?relay
        LJMP    ??Serial_callBack_2 & 0xFFFF
//  246       }
//  247     }
//  248     
//  249     if( readBytes == 1)
??Serial_callBack_1:
        MOV     A,#0x1
        XRL     A,?V0 + 0
        JZ      $+5
        LJMP    ??Serial_callBack_4 & 0xFFFF
//  250     {
//  251         yy1 = 1;
        MOV     ?V0 + 1,#0x1
//  252         if(buff[0]== 's')
        MOV     A,#0x20
        LCALL   ?XSTACK_DISP0_8
        MOVX    A,@DPTR
        XRL     A,#0x73
        JNZ     ??Serial_callBack_5
//  253         {
//  254           /// short address
//  255           short_ddr = _NIB.nwkDevAddress;
        MOV     DPTR,#_NIB + 20
        MOVX    A,@DPTR
        MOV     R0,A
        INC     DPTR
        MOVX    A,@DPTR
        MOV     R1,A
        MOV     A,#0x1
        LCALL   ?XSTACK_DISP0_8
        LCALL   ?Subroutine2 & 0xFFFF
//  256           
//  257           UART_Send_String( (uint8*)&short_ddr, 2);
//  258           
//  259         }
??CrossCallReturnLabel_2:
        MOV     A,#0x1
        LCALL   ?XSTACK_DISP0_8
        MOV     R2,DPL
        MOV     R3,DPH
        LCALL   ??UART_Send_String?relay
//  260         if(buff[0] == 'p')
??Serial_callBack_5:
        MOV     A,#0x20
        LCALL   ?XSTACK_DISP0_8
        MOVX    A,@DPTR
        XRL     A,#0x70
        JNZ     ??Serial_callBack_6
//  261         {
//  262           /// pan id
//  263           panid = _NIB.nwkPanId;
        MOV     DPTR,#_NIB + 33
        MOVX    A,@DPTR
        MOV     R0,A
        INC     DPTR
        MOVX    A,@DPTR
        MOV     R1,A
        MOV     A,#0x3
        LCALL   ?XSTACK_DISP0_8
        LCALL   ?Subroutine2 & 0xFFFF
//  264           UART_Send_String( (uint8*)&panid, 2);          
//  265         }
??CrossCallReturnLabel_3:
        MOV     A,#0x3
        LCALL   ?XSTACK_DISP0_8
        MOV     R2,DPL
        MOV     R3,DPH
        LCALL   ??UART_Send_String?relay
//  266         if(buff[0] == 'c')/// channel
??Serial_callBack_6:
        MOV     A,#0x20
        LCALL   ?XSTACK_DISP0_8
        MOVX    A,@DPTR
        XRL     A,#0x63
        JNZ     ??Serial_callBack_7
//  267         {
//  268             yy2 = _NIB.nwkLogicalChannel;
        MOV     DPTR,#_NIB + 22
        MOVX    A,@DPTR
        MOV     DPL,?XSP + 0
        MOV     DPH,?XSP + 1
        MOVX    @DPTR,A
//  269             UART_Send_String( (uint8*)&yy2, 1);
        ; Setup parameters for call to function UART_Send_String
        MOV     R4,#0x1
        MOV     R5,#0x0
        MOV     R2,DPL
        MOV     R3,DPH
        LCALL   ??UART_Send_String?relay
//  270             
//  271         }
//  272         if(buff[0] =='m') // mac address
??Serial_callBack_7:
        MOV     A,#0x20
        LCALL   ?XSTACK_DISP0_8
        MOVX    A,@DPTR
        XRL     A,#0x6d
        JNZ     ??Serial_callBack_8
//  273         {
//  274             ieeeAddr = NLME_GetExtAddr();
//  275             UART_Send_String( ieeeAddr, 8);
        ; Setup parameters for call to function UART_Send_String
        ; Setup parameters for call to function NLME_GetExtAddr
        LCALL   ??NLME_GetExtAddr?relay
        MOV     R4,#0x8
        MOV     R5,#0x0
        LCALL   ??UART_Send_String?relay
//  276             
//  277         }
//  278 
//  279         if( buff[0] ==0xc0) // coordinator 
??Serial_callBack_8:
        MOV     A,#0x20
        LCALL   ?XSTACK_DISP0_8
        MOVX    A,@DPTR
        XRL     A,#0xc0
        JNZ     ??Serial_callBack_9
//  280         {
//  281 
//  282           set_coordi();       
        ; Setup parameters for call to function set_coordi
        LCALL   ??set_coordi?relay
//  283           return;
        LJMP    ??Serial_callBack_0 & 0xFFFF
//  284         }
//  285 
//  286         if( buff[0] ==0xe0) // router
??Serial_callBack_9:
        MOVX    A,@DPTR
        XRL     A,#0xe0
        JNZ     ??Serial_callBack_10
//  287         {
//  288           set_router();
        ; Setup parameters for call to function set_router
        LCALL   ??set_router?relay
//  289           
//  290           return;
        LJMP    ??Serial_callBack_0 & 0xFFFF
//  291         }
//  292         
//  293         if(buff[0] == 0xCA)
??Serial_callBack_10:
        MOVX    A,@DPTR
        XRL     A,#0xca
        JZ      $+5
        LJMP    ??Serial_callBack_11 & 0xFFFF
//  294         {
//  295           // 
//  296           // read self AssociatedDevList
//  297           for(i=0;i< NWK_MAX_DEVICES; i++)
        MOV     R4,#0x0
//  298           {
//  299              nr = AssociatedDevList[ i ].nodeRelation;
//  300              if(nr > 0 && nr < 5) //CHILD_RFD CHILD_RFD_RX_IDLE CHILD_FFD CHILD_FFD_RX_IDLE
??Serial_callBack_12:
        MOV     A,R4
        MOV     B,#0x12
        MUL     AB
        MOV     R0,A
        MOV     R1,B
        MOV     A,#(AssociatedDevList + 4) & 0xff
        ADD     A,R0
        MOV     DPL,A
        MOV     A,#((AssociatedDevList + 4) >> 8) & 0xff
        ADDC    A,R1
        MOV     DPH,A
        MOVX    A,@DPTR
        DEC     A
        CLR     C
        SUBB    A,#0x4
        JNC     ??Serial_callBack_13
//  301              //if( nr != 0XFF)
//  302              {
//  303                //   myaddr.addrMode = (afAddrMode_t)Addr16Bit;
//  304                //   myaddr.endPoint = GENERICAPP_ENDPOINT;
//  305              //  if( AssociatedDevList[ i ].shortAddr != 0x0000)
//  306              //  {
//  307                   //if( AssocIsChild( AssociatedDevList[ i ].shortAddr ) != 1 || AssociatedDevList[ i ].age > NWK_ROUTE_AGE_LIMIT)
//  308                   //if( AssocIsChild( AssociatedDevList[ i ].shortAddr ) == 1 && AssociatedDevList[ i ].age > NWK_ROUTE_AGE_LIMIT )
//  309                  // {
//  310                     //  myaddr.addr.shortAddr = AssociatedDevList[ i ].shortAddr;
//  311                       /*
//  312                       if ( AF_DataRequest( &myaddr, &GenericApp_epDesc, GENERICAPP_CLUSTERID,(byte)osal_strlen( theMessageData ) + 1,
//  313                               (byte *)&theMessageData,
//  314                               &GenericApp_TransID,
//  315                               AF_ACK_REQUEST, AF_DEFAULT_RADIUS ) != afStatus_SUCCESS )
//  316                         {
//  317                           uprint("delete asso");
//  318                         */
//  319                    //       delete_asso( AssociatedDevList[ i ]. addrIdx);
//  320                           
//  321                   // }
//  322                     //    else
//  323                      //   {
//  324                           devlist[yy1] = AssociatedDevList[ i ].shortAddr;
        MOV     A,#AssociatedDevList & 0xff
        ADD     A,R0
        MOV     DPL,A
        MOV     A,#(AssociatedDevList >> 8) & 0xff
        ADDC    A,R1
        MOV     DPH,A
        MOVX    A,@DPTR
        MOV     R2,A
        INC     DPTR
        MOVX    A,@DPTR
        MOV     R3,A
        MOV     A,?V0 + 1
        CLR     C
        RLC     A
        MOV     R0,A
        CLR     A
        RLC     A
        MOV     R1,A
        MOV     A,#-0x60
        LCALL   ?XSTACK_DISP0_8
        MOV     A,DPL
        ADD     A,R0
        MOV     DPL,A
        MOV     A,DPH
        ADDC    A,R1
        MOV     DPH,A
        MOV     A,R2
        MOVX    @DPTR,A
        INC     DPTR
        MOV     A,R3
        MOVX    @DPTR,A
//  325                           yy1++;
        INC     ?V0 + 1
//  326                      //   }
//  327                   
//  328                   // }
//  329              }//else {break;}
//  330           }
??Serial_callBack_13:
        INC     R4
        MOV     A,R4
        CLR     C
        SUBB    A,#0x15
        JC      ??Serial_callBack_12
//  331           devlist[0] = BUILD_UINT16(0xce,  AssocCount(1, 4) );
        ; Setup parameters for call to function AssocCount
        MOV     R2,#0x4
        MOV     R1,#0x1
        LCALL   ??AssocCount?relay
        MOV     A,R2
        MOV     R1,A
        MOV     A,#-0x60
        LCALL   ?XSTACK_DISP0_8
        MOV     A,#-0x32
        MOVX    @DPTR,A
        INC     DPTR
        MOV     A,R1
        MOVX    @DPTR,A
//  332           UART_Send_String( (uint8*)&devlist[0], yy1*2);
        ; Setup parameters for call to function UART_Send_String
        MOV     A,?V0 + 1
        CLR     C
        RLC     A
        MOV     R4,A
        CLR     A
        RLC     A
        MOV     R5,A
        MOV     A,#-0x60
        LCALL   ?XSTACK_DISP0_8
        MOV     R2,DPL
        MOV     R3,DPH
        LCALL   ??UART_Send_String?relay
//  333             //p1 = AssocMakeList( &cnt );
//  334             //UART_Send_String( (uint8*)p1,  AssocCount(1, 4)*2);
//  335             //osal_mem_free(p1);
//  336           return;
        LJMP    ??Serial_callBack_0 & 0xFFFF
//  337         }
//  338     }
//  339     
//  340 #if defined( ZDO_COORDINATOR )
//  341     // only coordinator can have this function
//  342     if(readBytes == 3)
??Serial_callBack_4:
        MOV     A,#0x3
        XRL     A,?V0 + 0
        JZ      $+5
        LJMP    ??Serial_callBack_14 & 0xFFFF
//  343     {
//  344       
//  345       if( buff[0] == 0xCA || buff[0] == 0x6d)
        MOV     A,#0x20
        LCALL   ?XSTACK_DISP0_8
        MOVX    A,@DPTR
        XRL     A,#0xca
        JZ      ??Serial_callBack_15
        MOVX    A,@DPTR
        XRL     A,#0x6d
        JZ      $+5
        LJMP    ??Serial_callBack_2 & 0xFFFF
//  346       {
//  347         // CA xx xx ,send CA to a node ,with it's short address
//  348         ///uprint("it's CA ");
//  349         short_ddr = BUILD_UINT16( buff[1], buff[2] );
??Serial_callBack_15:
        MOV     A,#0x21
        LCALL   ?XSTACK_DISP0_8
        MOVX    A,@DPTR
        MOV     R2,A
        MOV     A,#0x22
        LCALL   ?XSTACK_DISP0_8
        MOVX    A,@DPTR
        MOV     R1,A
        MOV     A,R2
        MOV     R0,A
        MOV     A,#0x1
        LCALL   ?XSTACK_DISP0_8
        MOV     A,R0
        MOVX    @DPTR,A
        INC     DPTR
        MOV     A,R1
        MOVX    @DPTR,A
//  350         myaddr.addrMode = (afAddrMode_t)Addr16Bit;
        MOV     A,#0x1c
        LCALL   ?XSTACK_DISP0_8
        MOV     A,#0x2
        MOVX    @DPTR,A
//  351         myaddr.endPoint = GENERICAPP_ENDPOINT;
        MOV     A,#0x1d
        LCALL   ?XSTACK_DISP0_8
        MOV     A,#0xa
        MOVX    @DPTR,A
//  352         myaddr.addr.shortAddr = short_ddr;
        MOV     A,#0x1
        LCALL   ?XSTACK_DISP0_8
        MOVX    A,@DPTR
        MOV     R0,A
        INC     DPTR
        MOVX    A,@DPTR
        MOV     R1,A
        MOV     A,#0x14
        LCALL   ?XSTACK_DISP0_8
        MOV     A,R0
        MOVX    @DPTR,A
        INC     DPTR
        MOV     A,R1
        MOVX    @DPTR,A
//  353         
//  354         if ( AF_DataRequest( &myaddr, &GenericApp_epDesc, GENERICAPP_CLUSTERID, 1,
//  355                           (byte *)&buff,
//  356                           &GenericApp_TransID,
//  357                           AF_DISCV_ROUTE, AF_DEFAULT_RADIUS ) != afStatus_SUCCESS )
        ; Setup parameters for call to function AF_DataRequest
        MOV     ?V0 + 0,#0x1e
        MOV     R0,#?V0 + 0
        LCALL   ?PUSH_XSTACK_I_ONE
        CFI CFA_XSP16 add(XSP16, 221)
        MOV     ?V0 + 0,#GenericApp_TransID & 0xff
        MOV     ?V0 + 1,#(GenericApp_TransID >> 8) & 0xff
        MOV     R0,#?V0 + 0
        LCALL   ?PUSH_XSTACK_I_TWO
        CFI CFA_XSP16 add(XSP16, 223)
        MOV     A,#0x23
        LCALL   ?XSTACK_DISP0_8
        MOV     ?V0 + 0,DPL
        MOV     ?V0 + 1,DPH
        MOV     R0,#?V0 + 0
        LCALL   ?PUSH_XSTACK_I_TWO
        CFI CFA_XSP16 add(XSP16, 225)
        MOV     ?V0 + 0,#0x1
        MOV     ?V0 + 1,#0x0
        MOV     R0,#?V0 + 0
        LCALL   ?PUSH_XSTACK_I_TWO
        CFI CFA_XSP16 add(XSP16, 227)
        MOV     R0,#?V0 + 0
        LCALL   ?PUSH_XSTACK_I_TWO
        CFI CFA_XSP16 add(XSP16, 229)
        MOV     R1,#0x20
        MOV     R4,#GenericApp_epDesc & 0xff
        MOV     R5,#(GenericApp_epDesc >> 8) & 0xff
        MOV     A,#0x1d
        LCALL   ?XSTACK_DISP0_8
        LCALL   ?Subroutine7 & 0xFFFF
??CrossCallReturnLabel_17:
        LCALL   ?DEALLOC_XSTACK8
        CFI CFA_XSP16 add(XSP16, 220)
        MOV     A,R1
        JNZ     $+5
        LJMP    ??Serial_callBack_0 & 0xFFFF
//  358         {
//  359              AF_DataRequest( &myaddr, &GenericApp_epDesc, GENERICAPP_CLUSTERID, 1,
//  360                           (byte *)&buff,
//  361                           &GenericApp_TransID,
//  362                           AF_DISCV_ROUTE, AF_DEFAULT_RADIUS );
        ; Setup parameters for call to function AF_DataRequest
        MOV     ?V0 + 0,#0x1e
        MOV     R0,#?V0 + 0
        LCALL   ?PUSH_XSTACK_I_ONE
        CFI CFA_XSP16 add(XSP16, 221)
        MOV     ?V0 + 0,#GenericApp_TransID & 0xff
        MOV     ?V0 + 1,#(GenericApp_TransID >> 8) & 0xff
        MOV     R0,#?V0 + 0
        LCALL   ?PUSH_XSTACK_I_TWO
        CFI CFA_XSP16 add(XSP16, 223)
        MOV     A,#0x23
        LCALL   ?XSTACK_DISP0_8
        MOV     ?V0 + 0,DPL
        MOV     ?V0 + 1,DPH
        MOV     R0,#?V0 + 0
        LCALL   ?PUSH_XSTACK_I_TWO
        CFI CFA_XSP16 add(XSP16, 225)
        MOV     ?V0 + 0,#0x1
        MOV     ?V0 + 1,#0x0
        MOV     R0,#?V0 + 0
        LCALL   ?PUSH_XSTACK_I_TWO
        CFI CFA_XSP16 add(XSP16, 227)
        MOV     R0,#?V0 + 0
        LCALL   ?PUSH_XSTACK_I_TWO
        CFI CFA_XSP16 add(XSP16, 229)
        MOV     R1,#0x20
        MOV     R4,#GenericApp_epDesc & 0xff
        MOV     R5,#(GenericApp_epDesc >> 8) & 0xff
        MOV     A,#0x1d
        LCALL   ?XSTACK_DISP0_8
        MOV     R2,DPL
        MOV     R3,DPH
        LJMP    ??Serial_callBack_16 & 0xFFFF
        CFI CFA_XSP16 add(XSP16, 220)
//  363              // send twice only, if it is still not ok, fuck it
//  364           
//  365         }
//  366        return;
//  367       }
//  368     }
//  369           
//  370 #endif 
//  371           
//  372     if( readBytes >= 2)
??Serial_callBack_14:
        MOV     A,R2
        CLR     C
        SUBB    A,#0x2
        JNC     $+5
        LJMP    ??Serial_callBack_11 & 0xFFFF
//  373     {
//  374      
//  375       if( buff[0] == 'e' && buff[1] == '#')
??Serial_callBack_2:
        MOV     A,#0x20
        LCALL   ?XSTACK_DISP0_8
        MOVX    A,@DPTR
        XRL     A,#0x65
        JNZ     ??Serial_callBack_17
        MOV     A,#0x21
        LCALL   ?XSTACK_DISP0_8
        MOVX    A,@DPTR
        XRL     A,#0x23
        JZ      $+5
        LJMP    ??Serial_callBack_18 & 0xFFFF
//  376       {
//  377           uprint("EndDevice match");
        ; Setup parameters for call to function uprint
        MOV     R2,#`?<Constant "EndDevice match">` & 0xff
        MOV     R3,#(`?<Constant "EndDevice match">` >> 8) & 0xff
        LCALL   ??uprint?relay
//  378           HalLedSet ( HAL_LED_1, HAL_LED_MODE_OFF );
        ; Setup parameters for call to function HalLedSet
        MOV     R2,#0x0
        MOV     R1,#0x1
        LCALL   ??HalLedSet?relay
//  379 
//  380           dstAddr.addrMode = Addr16Bit;
        MOV     A,#0x13
        LCALL   ?XSTACK_DISP0_8
        MOV     A,#0x2
        MOVX    @DPTR,A
//  381           dstAddr.addr.shortAddr = 0x0000; // Coordinator
        MOV     A,#0xb
        LCALL   ?XSTACK_DISP0_8
        CLR     A
        MOVX    @DPTR,A
        INC     DPTR
        MOVX    @DPTR,A
//  382           ZDP_EndDeviceBindReq( &dstAddr, NLME_GetShortAddr(), GenericApp_epDesc.endPoint,
//  383                             GENERICAPP_PROFID,
//  384                             GENERICAPP_MAX_CLUSTERS, (cId_t *)GenericApp_ClusterList,
//  385                             GENERICAPP_MAX_CLUSTERS, (cId_t *)GenericApp_ClusterList,
//  386                             FALSE );
        ; Setup parameters for call to function NLME_GetShortAddr
        LCALL   ??NLME_GetShortAddr?relay
        MOV     ?V0 + 2,R2
        MOV     ?V0 + 3,R3
        MOV     R4,?V0 + 2
        MOV     R5,?V0 + 3
        MOV     ?V0 + 2,#GenericApp_ClusterList & 0xff
        MOV     ?V0 + 3,#(GenericApp_ClusterList >> 8) & 0xff
        ; Setup parameters for call to function ZDP_EndDeviceBindReq
        MOV     ?V0 + 1,#0x0
        MOV     R0,#?V0 + 1
        LCALL   ?PUSH_XSTACK_I_ONE
        CFI CFA_XSP16 add(XSP16, 221)
        MOV     R0,#?V0 + 2
        LCALL   ?PUSH_XSTACK_I_TWO
        CFI CFA_XSP16 add(XSP16, 223)
        MOV     ?V0 + 1,#0x1
        MOV     R0,#?V0 + 1
        LCALL   ?PUSH_XSTACK_I_ONE
        CFI CFA_XSP16 add(XSP16, 224)
        MOV     R0,#?V0 + 2
        LCALL   ?PUSH_XSTACK_I_TWO
        CFI CFA_XSP16 add(XSP16, 226)
        MOV     R0,#?V0 + 1
        LCALL   ?PUSH_XSTACK_I_ONE
        CFI CFA_XSP16 add(XSP16, 227)
        MOV     ?V0 + 2,#0x4
        MOV     ?V0 + 3,#0xf
        MOV     R0,#?V0 + 2
        LCALL   ?PUSH_XSTACK_I_TWO
        CFI CFA_XSP16 add(XSP16, 229)
        MOV     DPTR,#GenericApp_epDesc
        MOVX    A,@DPTR
        MOV     R1,A
        MOV     A,#0x14
        LCALL   ?XSTACK_DISP0_8
        MOV     R2,DPL
        MOV     R3,DPH
        LCALL   ??ZDP_EndDeviceBindReq?relay
        MOV     A,#0x9
        LCALL   ?DEALLOC_XSTACK8
        CFI CFA_XSP16 add(XSP16, 220)
//  387       
//  388       }
//  389  
//  390       if( buff[0] == 'r' && buff[1] == '#')
??Serial_callBack_17:
        MOV     A,#0x20
        LCALL   ?XSTACK_DISP0_8
        MOVX    A,@DPTR
        XRL     A,#0x72
        JNZ     ??Serial_callBack_18
        MOV     A,#0x21
        LCALL   ?XSTACK_DISP0_8
        MOVX    A,@DPTR
        XRL     A,#0x23
        JNZ     ??Serial_callBack_18
//  391       {
//  392           uprint("Router Device match");
        ; Setup parameters for call to function uprint
        MOV     R2,#`?<Constant "Router Device match">` & 0xff
        MOV     R3,#(`?<Constant "Router Device match">` >> 8) & 0xff
        LCALL   ??uprint?relay
//  393           
//  394         HalLedSet ( HAL_LED_1, HAL_LED_MODE_FLASH );
        ; Setup parameters for call to function HalLedSet
        MOV     R2,#0x4
        MOV     R1,#0x1
        LCALL   ??HalLedSet?relay
//  395 
//  396       dstAddr.addrMode = AddrBroadcast;
        MOV     A,#0x13
        LCALL   ?XSTACK_DISP0_8
        MOV     A,#0xf
        MOVX    @DPTR,A
//  397       dstAddr.addr.shortAddr = NWK_BROADCAST_SHORTADDR;
        MOV     A,#0xb
        LCALL   ?XSTACK_DISP0_8
        MOV     A,#-0x1
        MOVX    @DPTR,A
        INC     DPTR
        MOVX    @DPTR,A
//  398       ZDP_MatchDescReq( &dstAddr, NWK_BROADCAST_SHORTADDR,
//  399                         GENERICAPP_PROFID,
//  400                         GENERICAPP_MAX_CLUSTERS, (cId_t *)GenericApp_ClusterList,
//  401                         GENERICAPP_MAX_CLUSTERS, (cId_t *)GenericApp_ClusterList,
//  402                         FALSE );
        MOV     ?V0 + 2,#GenericApp_ClusterList & 0xff
        MOV     ?V0 + 3,#(GenericApp_ClusterList >> 8) & 0xff
        ; Setup parameters for call to function ZDP_MatchDescReq
        MOV     ?V0 + 1,#0x0
        MOV     R0,#?V0 + 1
        LCALL   ?PUSH_XSTACK_I_ONE
        CFI CFA_XSP16 add(XSP16, 221)
        MOV     R0,#?V0 + 2
        LCALL   ?PUSH_XSTACK_I_TWO
        CFI CFA_XSP16 add(XSP16, 223)
        MOV     ?V0 + 1,#0x1
        MOV     R0,#?V0 + 1
        LCALL   ?PUSH_XSTACK_I_ONE
        CFI CFA_XSP16 add(XSP16, 224)
        MOV     R0,#?V0 + 2
        LCALL   ?PUSH_XSTACK_I_TWO
        CFI CFA_XSP16 add(XSP16, 226)
        MOV     ?V0 + 2,#0x4
        MOV     ?V0 + 3,#0xf
        MOV     R0,#?V0 + 2
        LCALL   ?PUSH_XSTACK_I_TWO
        CFI CFA_XSP16 add(XSP16, 228)
        MOV     R1,#0x1
        MOV     R4,#-0x1
        MOV     R5,#-0x1
        MOV     A,#0x13
        LCALL   ?XSTACK_DISP0_8
        MOV     R2,DPL
        MOV     R3,DPH
        LCALL   ??ZDP_MatchDescReq?relay
        MOV     A,#0x8
        LCALL   ?DEALLOC_XSTACK8
        CFI CFA_XSP16 add(XSP16, 220)
//  403       
//  404       }
//  405       if(readBytes == 6)
??Serial_callBack_18:
        MOV     A,#0x6
        XRL     A,?V0 + 0
        JZ      $+5
        LJMP    ??Serial_callBack_19 & 0xFFFF
//  406       {
//  407         if(buff[0] == 'p' && buff[1]==':') // pan id
        MOV     A,#0x20
        LCALL   ?XSTACK_DISP0_8
        MOVX    A,@DPTR
        XRL     A,#0x70
        JZ      $+5
        LJMP    ??Serial_callBack_19 & 0xFFFF
        MOV     A,#0x21
        LCALL   ?XSTACK_DISP0_8
        MOVX    A,@DPTR
        XRL     A,#0x3a
        JZ      $+5
        LJMP    ??Serial_callBack_3 & 0xFFFF
//  408         {
//  409             strncpy(pbuf, &buff[2],2); pbuf[2] = '\0';
        ; Setup parameters for call to function strncpy
        MOV     ?V0 + 2,#0x2
        MOV     ?V0 + 3,#0x0
        MOV     R0,#?V0 + 2
        LCALL   ?PUSH_XSTACK_I_TWO
        CFI CFA_XSP16 add(XSP16, 222)
        MOV     A,#0x24
        LCALL   ?XSTACK_DISP0_8
        MOV     R4,DPL
        MOV     R5,DPH
        MOV     A,#0xa
        LCALL   ?XSTACK_DISP0_8
        MOV     R2,DPL
        MOV     R3,DPH
        LCALL   ??strncpy?relay
        MOV     A,#0x2
        LCALL   ?DEALLOC_XSTACK8
        CFI CFA_XSP16 add(XSP16, 220)
        MOV     A,#0xa
        LCALL   ?XSTACK_DISP0_8
        CLR     A
        MOVX    @DPTR,A
//  410             strncpy(pbuf1, &buff[4],2); pbuf1[2] = '\0';
        ; Setup parameters for call to function strncpy
        MOV     R0,#?V0 + 2
        LCALL   ?PUSH_XSTACK_I_TWO
        CFI CFA_XSP16 add(XSP16, 222)
        MOV     A,#0x26
        LCALL   ?XSTACK_DISP0_8
        MOV     R4,DPL
        MOV     R5,DPH
        MOV     A,#0x7
        LCALL   ?XSTACK_DISP0_8
        MOV     R2,DPL
        MOV     R3,DPH
        LCALL   ??strncpy?relay
        MOV     A,#0x2
        LCALL   ?DEALLOC_XSTACK8
        CFI CFA_XSP16 add(XSP16, 220)
        MOV     A,#0x7
        LCALL   ?XSTACK_DISP0_8
        CLR     A
        MOVX    @DPTR,A
//  411             
//  412             set_panid( BUILD_UINT16( strtol(pbuf1,NULL,16),strtol(pbuf,NULL,16) ));
        ; Setup parameters for call to function strtol
        MOV     ?V0 + 2,#0x10
        MOV     R0,#?V0 + 2
        LCALL   ?PUSH_XSTACK_I_TWO
        CFI CFA_XSP16 add(XSP16, 222)
        MOV     R4,#0x0
        MOV     R5,#0x0
        MOV     A,#0x7
        LCALL   ?XSTACK_DISP0_8
        MOV     R2,DPL
        MOV     R3,DPH
        LCALL   ??strtol?relay
        MOV     A,#0x2
        LCALL   ?DEALLOC_XSTACK8
        CFI CFA_XSP16 add(XSP16, 220)
        ; Setup parameters for call to function set_panid
        MOV     A,R2
        MOV     R6,A
        ; Setup parameters for call to function strtol
        MOV     R0,#?V0 + 2
        LCALL   ?PUSH_XSTACK_I_TWO
        CFI CFA_XSP16 add(XSP16, 222)
        MOV     R4,#0x0
        MOV     R5,#0x0
        MOV     A,#0xa
        LCALL   ?XSTACK_DISP0_8
        MOV     R2,DPL
        MOV     R3,DPH
        LCALL   ??strtol?relay
        MOV     A,#0x2
        LCALL   ?DEALLOC_XSTACK8
        CFI CFA_XSP16 add(XSP16, 220)
        MOV     A,R2
        MOV     ?V0 + 5,A
        MOV     A,R6
        ADD     A,#0x0
        MOV     R2,A
        CLR     A
        ADDC    A,?V0 + 5
        MOV     R3,A
        LCALL   ??set_panid?relay
//  413             if(_NIB.nwkPanId == 0xffff)
        MOV     DPTR,#_NIB + 33
        MOVX    A,@DPTR
        CPL     A
        JNZ     ??Serial_callBack_20
        INC     DPTR
        MOVX    A,@DPTR
        CPL     A
??Serial_callBack_20:
        JNZ     ??Serial_callBack_19
//  414             {
//  415               zgWriteStartupOptions (ZG_STARTUP_SET, ZCD_STARTOPT_DEFAULT_NETWORK_STATE);           
        ; Setup parameters for call to function zgWriteStartupOptions
        MOV     R2,#0x2
        MOV     R1,#-0x1
        LCALL   ??zgWriteStartupOptions?relay
//  416               SystemReset();
        CLR     0xa8.7
        CLR     0xa8.7
        MOV     0xc9,#-0x55
        MOV     0xc9,#0x5b
??Serial_callBack_21:
        SJMP    ??Serial_callBack_21
//  417             }            
//  418             //SystemResetSoft();
//  419         }
//  420         
//  421         if(buff[0] == 's' && buff[1]==':') // short address
//  422         {
//  423             /*
//  424             strncpy(pbuf, &buff[2],2); pbuf[2] = '\0';
//  425             strncpy(pbuf1, &buff[4],2); pbuf1[2] = '\0';
//  426             _NIB.nwkDevAddress = BUILD_UINT16( strtol(pbuf1,NULL,16),strtol(pbuf,NULL,16));
//  427             */
//  428             
//  429         }
//  430       }
//  431       
//  432       
//  433       cmd = BUILD_UINT16(buff[ 1 + 1], buff[1]);
//  434       if( ( buff[ 0 ] == CPT_SOP) && (cmd == SYS_PING_REQUEST) ) 
??Serial_callBack_19:
        MOV     A,#0x20
        LCALL   ?XSTACK_DISP0_8
        MOVX    A,@DPTR
        XRL     A,#0xfe
        JNZ     ??Serial_callBack_22
        MOV     A,#0x22
        LCALL   ?XSTACK_DISP0_8
        MOVX    A,@DPTR
        MOV     R2,A
        MOV     A,#0x21
        LCALL   ?XSTACK_DISP0_8
        MOVX    A,@DPTR
        MOV     R1,A
        MOV     A,R2
        MOV     R0,A
        MOV     A,#0x21
        XRL     A,R0
        JNZ     ??Serial_callBack_23
        MOV     A,R1
??Serial_callBack_23:
        JNZ     ??Serial_callBack_22
//  435       {
//  436         sysPingReqRcvd();
        ; Setup parameters for call to function sysPingReqRcvd
        LCALL   ??sysPingReqRcvd?relay
//  437         return;
        LJMP    ??Serial_callBack_0 & 0xFFFF
//  438       }
//  439 
//  440       if( readBytes == 2)
??Serial_callBack_22:
        MOV     A,#0x2
        XRL     A,?V0 + 0
        JZ      $+5
        LJMP    ??Serial_callBack_3 & 0xFFFF
//  441       {        
//  442         if( buff[0] == 0xcc )
        MOV     A,#0x20
        LCALL   ?XSTACK_DISP0_8
        MOVX    A,@DPTR
        XRL     A,#0xcc
        JZ      $+5
        LJMP    ??Serial_callBack_3 & 0xFFFF
//  443         {
//  444           if( buff[1] > 0x0a && buff[1] < 0x1b )
        MOV     A,#0x21
        LCALL   ?XSTACK_DISP0_8
        MOVX    A,@DPTR
        ADD     A,#-0xb
        CLR     C
        SUBB    A,#0x10
        JC      $+5
        LJMP    ??Serial_callBack_3 & 0xFFFF
//  445           {
//  446 
//  447             _NIB.nwkLogicalChannel = buff[1];
        MOVX    A,@DPTR
        MOV     DPTR,#_NIB + 22
        MOVX    @DPTR,A
//  448             NLME_UpdateNV(0x01);
        ; Setup parameters for call to function NLME_UpdateNV
        MOV     R1,#0x1
        LCALL   ??NLME_UpdateNV?relay
//  449             ZMacSetReq( ZMacChannel, &buff[1]);
        ; Setup parameters for call to function ZMacSetReq
        MOV     A,#0x21
        LCALL   ?XSTACK_DISP0_8
        MOV     R2,DPL
        MOV     R3,DPH
        MOV     R1,#-0x1f
        LCALL   ??ZMacSetReq?relay
//  450             
//  451             osal_nv_item_init( ZCD_NV_CHANLIST, sizeof(zgDefaultChannelList), &zgDefaultChannelList);
        ; Setup parameters for call to function osal_nv_item_init
        MOV     ?V0 + 2,#zgDefaultChannelList & 0xff
        MOV     ?V0 + 3,#(zgDefaultChannelList >> 8) & 0xff
        MOV     R0,#?V0 + 2
        LCALL   ?PUSH_XSTACK_I_TWO
        CFI CFA_XSP16 add(XSP16, 222)
        MOV     R4,#0x4
        MOV     R5,#0x0
        MOV     R2,#-0x7c
        MOV     R3,#0x0
        LCALL   ??osal_nv_item_init?relay
        MOV     A,#0x2
        LCALL   ?DEALLOC_XSTACK8
        CFI CFA_XSP16 add(XSP16, 220)
//  452             
//  453             if( buff[1] == 0x0b)
        MOV     A,#0x21
        LCALL   ?XSTACK_DISP0_8
        MOVX    A,@DPTR
        XRL     A,#0xb
        JNZ     ??Serial_callBack_24
//  454             {
//  455               zgDefaultChannelList = 0x00000800;
        MOV     DPTR,#__Constant_800
        LJMP    ??Serial_callBack_25 & 0xFFFF
//  456               
//  457             } 
//  458             if (buff[1] == 0x0c )
??Serial_callBack_24:
        MOVX    A,@DPTR
        XRL     A,#0xc
        JNZ     ??Serial_callBack_26
//  459             {
//  460               zgDefaultChannelList = 0x00001000;
        MOV     DPTR,#__Constant_1000
        LJMP    ??Serial_callBack_25 & 0xFFFF
//  461             }            
//  462             if (buff[1] == 0x0d )
??Serial_callBack_26:
        MOVX    A,@DPTR
        XRL     A,#0xd
        JNZ     ??Serial_callBack_27
//  463             {
//  464               zgDefaultChannelList = 0x00002000;
        MOV     DPTR,#__Constant_2000
        LJMP    ??Serial_callBack_25 & 0xFFFF
//  465             }
//  466             if (buff[1] == 0x0e )
??Serial_callBack_27:
        MOVX    A,@DPTR
        XRL     A,#0xe
        JNZ     ??Serial_callBack_28
//  467             {
//  468               zgDefaultChannelList = 0x00004000;
        MOV     DPTR,#__Constant_4000
        SJMP    ??Serial_callBack_25
//  469             }
//  470             if (buff[1] == 0x0f )
??Serial_callBack_28:
        MOVX    A,@DPTR
        XRL     A,#0xf
        JNZ     ??Serial_callBack_29
//  471             {
//  472               zgDefaultChannelList = 0x00008000;
        MOV     DPTR,#__Constant_8000
        SJMP    ??Serial_callBack_25
//  473             }
//  474             if (buff[1] == 0x10 )
??Serial_callBack_29:
        MOVX    A,@DPTR
        XRL     A,#0x10
        JNZ     ??Serial_callBack_30
//  475             {
//  476               zgDefaultChannelList = 0x00010000;
        MOV     DPTR,#__Constant_10000
        SJMP    ??Serial_callBack_25
//  477             }
//  478             if (buff[1] == 0x11 )
??Serial_callBack_30:
        MOVX    A,@DPTR
        XRL     A,#0x11
        JNZ     ??Serial_callBack_31
//  479             {
//  480               zgDefaultChannelList = 0x00020000;
        MOV     DPTR,#__Constant_20000
        SJMP    ??Serial_callBack_25
//  481             }
//  482             if (buff[1] == 0x12 )
??Serial_callBack_31:
        MOVX    A,@DPTR
        XRL     A,#0x12
        JNZ     ??Serial_callBack_32
//  483             {
//  484               zgDefaultChannelList = 0x00040000;
        MOV     DPTR,#__Constant_40000
        SJMP    ??Serial_callBack_25
//  485             }            
//  486             if (buff[1] == 0x13 )
??Serial_callBack_32:
        MOVX    A,@DPTR
        XRL     A,#0x13
        JNZ     ??Serial_callBack_33
//  487             {
//  488               zgDefaultChannelList = 0x00080000;
        MOV     DPTR,#__Constant_80000
        SJMP    ??Serial_callBack_25
//  489             }
//  490             if (buff[1] == 0x14 )
??Serial_callBack_33:
        MOVX    A,@DPTR
        XRL     A,#0x14
        JNZ     ??Serial_callBack_34
//  491             {
//  492               zgDefaultChannelList = 0x00100000;
        MOV     DPTR,#__Constant_100000
        SJMP    ??Serial_callBack_25
//  493             }
//  494             if (buff[1] == 0x15 )
??Serial_callBack_34:
        MOVX    A,@DPTR
        XRL     A,#0x15
        JNZ     ??Serial_callBack_35
//  495             {
//  496               zgDefaultChannelList = 0x00200000;
        MOV     DPTR,#__Constant_200000
        SJMP    ??Serial_callBack_25
//  497             }            
//  498             if (buff[1] == 0x16 )
??Serial_callBack_35:
        MOVX    A,@DPTR
        XRL     A,#0x16
        JNZ     ??Serial_callBack_36
//  499             {
//  500               zgDefaultChannelList = 0x00400000;
        MOV     DPTR,#__Constant_400000
        SJMP    ??Serial_callBack_25
//  501             }
//  502             if (buff[1] == 0x17 )
??Serial_callBack_36:
        MOVX    A,@DPTR
        XRL     A,#0x17
        JNZ     ??Serial_callBack_37
//  503             {
//  504               zgDefaultChannelList = 0x00800000;
        MOV     DPTR,#__Constant_800000
        SJMP    ??Serial_callBack_25
//  505             }
//  506             if (buff[1] == 0x18 )
??Serial_callBack_37:
        MOVX    A,@DPTR
        XRL     A,#0x18
        JNZ     ??Serial_callBack_38
//  507             {
//  508               zgDefaultChannelList = 0x01000000;
        MOV     DPTR,#__Constant_1000000
        SJMP    ??Serial_callBack_25
//  509             }
//  510 
//  511             if (buff[1] == 0x19 )
??Serial_callBack_38:
        MOVX    A,@DPTR
        XRL     A,#0x19
        JNZ     ??Serial_callBack_39
//  512             {
//  513               zgDefaultChannelList = 0x02000000;
        MOV     DPTR,#__Constant_2000000
        SJMP    ??Serial_callBack_25
//  514             }
//  515             if (buff[1] == 0x1a )
??Serial_callBack_39:
        MOVX    A,@DPTR
        XRL     A,#0x1a
        JNZ     ??Serial_callBack_40
//  516             {
//  517               zgDefaultChannelList = 0x04000000;
        MOV     DPTR,#__Constant_4000000
??Serial_callBack_25:
        LCALL   ?XLOAD_R2345
        MOV     DPTR,#zgDefaultChannelList
        LCALL   ?XSTORE_R2345
//  518             }
//  519             
//  520             osal_nv_write(  ZCD_NV_CHANLIST, 0 ,sizeof(zgDefaultChannelList), &zgDefaultChannelList);
??Serial_callBack_40:
        ; Setup parameters for call to function osal_nv_write
        MOV     R0,#?V0 + 2
        LCALL   ?PUSH_XSTACK_I_TWO
        CFI CFA_XSP16 add(XSP16, 222)
        MOV     ?V0 + 2,#0x4
        MOV     ?V0 + 3,#0x0
        MOV     R0,#?V0 + 2
        LCALL   ?PUSH_XSTACK_I_TWO
        CFI CFA_XSP16 add(XSP16, 224)
        MOV     R4,#0x0
        MOV     R5,#0x0
        MOV     R2,#-0x7c
        MOV     R3,#0x0
        LCALL   ??osal_nv_write?relay
        MOV     A,#0x4
        LCALL   ?DEALLOC_XSTACK8
        CFI CFA_XSP16 add(XSP16, 220)
//  521             
//  522             UART_Send_String( (uint8*)&zgDefaultChannelList, sizeof(zgDefaultChannelList) );
        ; Setup parameters for call to function UART_Send_String
        MOV     R4,#0x4
        MOV     R5,#0x0
        MOV     R2,#zgDefaultChannelList & 0xff
        MOV     R3,#(zgDefaultChannelList >> 8) & 0xff
        LCALL   ??UART_Send_String?relay
//  523 
//  524             /*
//  525             _NIB.nwkLogicalChannel = buff[1];
//  526             NLME_UpdateNV(0x01);
//  527             if( osal_nv_write(ZCD_NV_CHANLIST, 0, osal_nv_item_len( ZCD_NV_CHANLIST ), &tmp32) !=  ZSUCCESS)
//  528             {
//  529               uprint("change channel to nv failed");
//  530             }
//  531             */
//  532             /*
//  533             _NIB.nwkLogicalChannel = buff[1];
//  534             ZMacSetReq( ZMacChannel, &buff[1]);
//  535             ZDApp_NwkStateUpdateCB();
//  536             _NIB.nwkTotalTransmissions = 0;
//  537             nwkTransmissionFailures( TRUE );
//  538             */
//  539           }
//  540         }
//  541         
//  542       }// readBytes==2
//  543 
//  544 
//  545       ser_process( buff,readBytes );// 2 
??Serial_callBack_3:
        ; Setup parameters for call to function ser_process
        MOV     R1,?V0 + 0
        MOV     A,#0x20
        LCALL   ?XSTACK_DISP0_8
        MOV     R2,DPL
        MOV     R3,DPH
        LCALL   ??ser_process?relay
//  546     }//if( readBytes >= 2)
//  547 
//  548 
//  549     AF_DataRequest( &GenericApp_DstAddr, &GenericApp_epDesc,
//  550                        GENERICAPP_CLUSTERID,
//  551                        readBytes,
//  552                        (byte *)&buff,
//  553                        &GenericApp_TransID,
//  554                        AF_DISCV_ROUTE, AF_DEFAULT_RADIUS );
??Serial_callBack_11:
        ; Setup parameters for call to function AF_DataRequest
        MOV     ?V0 + 1,#0x1e
        MOV     R0,#?V0 + 1
        LCALL   ?PUSH_XSTACK_I_ONE
        CFI CFA_XSP16 add(XSP16, 221)
        MOV     ?V0 + 2,#GenericApp_TransID & 0xff
        MOV     ?V0 + 3,#(GenericApp_TransID >> 8) & 0xff
        MOV     R0,#?V0 + 2
        LCALL   ?PUSH_XSTACK_I_TWO
        CFI CFA_XSP16 add(XSP16, 223)
        MOV     A,#0x23
        LCALL   ?XSTACK_DISP0_8
        MOV     ?V0 + 2,DPL
        MOV     ?V0 + 3,DPH
        MOV     R0,#?V0 + 2
        LCALL   ?PUSH_XSTACK_I_TWO
        CFI CFA_XSP16 add(XSP16, 225)
        MOV     ?V0 + 1,#0x0
        MOV     R0,#?V0 + 0
        LCALL   ?PUSH_XSTACK_I_TWO
        CFI CFA_XSP16 add(XSP16, 227)
        MOV     ?V0 + 0,#0x1
        MOV     R0,#?V0 + 0
        LCALL   ?PUSH_XSTACK_I_TWO
        CFI CFA_XSP16 add(XSP16, 229)
        MOV     R1,#0x20
        MOV     R4,#GenericApp_epDesc & 0xff
        MOV     R5,#(GenericApp_epDesc >> 8) & 0xff
        MOV     R2,#GenericApp_DstAddr & 0xff
        MOV     R3,#(GenericApp_DstAddr >> 8) & 0xff
//  555     
//  556       
//  557   } //if (readBytes > 0) 
??Serial_callBack_16:
        LCALL   ??Subroutine11_0 & 0xFFFF
??CrossCallReturnLabel_18:
        LCALL   ?DEALLOC_XSTACK8
        CFI CFA_XSP16 add(XSP16, 220)
??Serial_callBack_0:
        MOV     A,#-0x34
        LCALL   ?DEALLOC_XSTACK8
        CFI CFA_XSP16 add(XSP16, 16)
        MOV     R7,#0x8
        LJMP    ?BANKED_LEAVE_XDATA
        CFI EndBlock cfiBlock4
        REQUIRE _A_IEN0
        REQUIRE WDCTL
//  558 }

        RSEG BANKED_CODE:CODE:NOROOT(0)
?Subroutine2:
        CFI Block cfiCond5 Using cfiCommon0
        CFI NoFunction
        CFI Conditional ??CrossCallReturnLabel_2
        CFI R6 load(1, XDATA, add(CFA_XSP16, literal(-16)))
        CFI VB load(1, XDATA, add(CFA_XSP16, literal(-15)))
        CFI V0 load(1, XDATA, add(CFA_XSP16, literal(-14)))
        CFI V1 load(1, XDATA, add(CFA_XSP16, literal(-13)))
        CFI V2 load(1, XDATA, add(CFA_XSP16, literal(-12)))
        CFI V3 load(1, XDATA, add(CFA_XSP16, literal(-11)))
        CFI V4 load(1, XDATA, add(CFA_XSP16, literal(-10)))
        CFI V5 load(1, XDATA, add(CFA_XSP16, literal(-9)))
        CFI V6 load(1, XDATA, add(CFA_XSP16, literal(-8)))
        CFI V7 load(1, XDATA, add(CFA_XSP16, literal(-7)))
        CFI R7 load(1, XDATA, add(CFA_XSP16, literal(-6)))
        CFI ?RET_LOW load(1, XDATA, add(CFA_XSP16, literal(-5)))
        CFI ?RET_HIGH load(1, XDATA, add(CFA_XSP16, literal(-4)))
        CFI ?BRET_EXT load(1, XDATA, add(CFA_XSP16, literal(-3)))
        CFI DPL0 load(1, XDATA, add(CFA_XSP16, literal(-2)))
        CFI DPH0 load(1, XDATA, add(CFA_XSP16, literal(-1)))
        CFI CFA_SP SP+0
        CFI CFA_XSP16 add(XSP16, 220)
        CFI Block cfiCond6 Using cfiCommon0
        CFI (cfiCond6) NoFunction
        CFI (cfiCond6) Conditional ??CrossCallReturnLabel_3
        CFI (cfiCond6) R6 load(1, XDATA, add(CFA_XSP16, literal(-16)))
        CFI (cfiCond6) VB load(1, XDATA, add(CFA_XSP16, literal(-15)))
        CFI (cfiCond6) V0 load(1, XDATA, add(CFA_XSP16, literal(-14)))
        CFI (cfiCond6) V1 load(1, XDATA, add(CFA_XSP16, literal(-13)))
        CFI (cfiCond6) V2 load(1, XDATA, add(CFA_XSP16, literal(-12)))
        CFI (cfiCond6) V3 load(1, XDATA, add(CFA_XSP16, literal(-11)))
        CFI (cfiCond6) V4 load(1, XDATA, add(CFA_XSP16, literal(-10)))
        CFI (cfiCond6) V5 load(1, XDATA, add(CFA_XSP16, literal(-9)))
        CFI (cfiCond6) V6 load(1, XDATA, add(CFA_XSP16, literal(-8)))
        CFI (cfiCond6) V7 load(1, XDATA, add(CFA_XSP16, literal(-7)))
        CFI (cfiCond6) R7 load(1, XDATA, add(CFA_XSP16, literal(-6)))
        CFI (cfiCond6) ?RET_LOW load(1, XDATA, add(CFA_XSP16, literal(-5)))
        CFI (cfiCond6) ?RET_HIGH load(1, XDATA, add(CFA_XSP16, literal(-4)))
        CFI (cfiCond6) ?BRET_EXT load(1, XDATA, add(CFA_XSP16, literal(-3)))
        CFI (cfiCond6) DPL0 load(1, XDATA, add(CFA_XSP16, literal(-2)))
        CFI (cfiCond6) DPH0 load(1, XDATA, add(CFA_XSP16, literal(-1)))
        CFI (cfiCond6) CFA_SP SP+0
        CFI (cfiCond6) CFA_XSP16 add(XSP16, 220)
        CFI Block cfiPicker7 Using cfiCommon1
        CFI (cfiPicker7) NoFunction
        CFI (cfiPicker7) Picker
        MOV     A,R0
        MOVX    @DPTR,A
        INC     DPTR
        MOV     A,R1
        MOVX    @DPTR,A
        ; Setup parameters for call to function UART_Send_String
        ; Setup parameters for call to function UART_Send_String
        MOV     R4,#0x2
        MOV     R5,#0x0
        RET
        CFI EndBlock cfiCond5
        CFI EndBlock cfiCond6
        CFI EndBlock cfiPicker7
//  559 
//  560 /*********************************************************************
//  561  * LOCAL FUNCTIONS
//  562  */
//  563 static void GenericApp_ProcessZDOMsgs( zdoIncomingMsg_t *inMsg );
//  564 static void GenericApp_HandleKeys( byte shift, byte keys );
//  565 static void GenericApp_MessageMSGCB( afIncomingMSGPacket_t *pckt );
//  566 static void GenericApp_SendTheMessage( void );
//  567 
//  568 #if defined( IAR_ARMCM3_LM )
//  569 static void GenericApp_ProcessRtosMessage( void );
//  570 #endif
//  571 
//  572 

        RSEG BANKED_CODE:CODE:NOROOT(0)
//  573 void GenericApp_Init( uint8 task_id )
GenericApp_Init:
        CFI Block cfiBlock8 Using cfiCommon0
        CFI Function GenericApp_Init
        CODE
//  574 {
        FUNCALL GenericApp_Init, afRegister
        LOCFRAME ISTACK, 0, STACK
        LOCFRAME PSTACK, 0, STACK
        LOCFRAME XSTACK, 10, STACK
        LOCFRAME IOVERLAY, 0, STATIC
        LOCFRAME DOVERLAY, 0, STATIC
        ARGFRAME ISTACK, 0, STACK
        ARGFRAME PSTACK, 0, STACK
        ARGFRAME XSTACK, 10, STACK
        ARGFRAME IOVERLAY, 0, STATIC
        ARGFRAME DOVERLAY, 0, STATIC
        FUNCALL GenericApp_Init, RegisterForKeys
        LOCFRAME ISTACK, 0, STACK
        LOCFRAME PSTACK, 0, STACK
        LOCFRAME XSTACK, 10, STACK
        LOCFRAME IOVERLAY, 0, STATIC
        LOCFRAME DOVERLAY, 0, STATIC
        ARGFRAME ISTACK, 0, STACK
        ARGFRAME PSTACK, 0, STACK
        ARGFRAME XSTACK, 10, STACK
        ARGFRAME IOVERLAY, 0, STATIC
        ARGFRAME DOVERLAY, 0, STATIC
        FUNCALL GenericApp_Init, HalLcdWriteString
        LOCFRAME ISTACK, 0, STACK
        LOCFRAME PSTACK, 0, STACK
        LOCFRAME XSTACK, 10, STACK
        LOCFRAME IOVERLAY, 0, STATIC
        LOCFRAME DOVERLAY, 0, STATIC
        ARGFRAME ISTACK, 0, STACK
        ARGFRAME PSTACK, 0, STACK
        ARGFRAME XSTACK, 10, STACK
        ARGFRAME IOVERLAY, 0, STATIC
        ARGFRAME DOVERLAY, 0, STATIC
        FUNCALL GenericApp_Init, osal_nv_item_len
        LOCFRAME ISTACK, 0, STACK
        LOCFRAME PSTACK, 0, STACK
        LOCFRAME XSTACK, 10, STACK
        LOCFRAME IOVERLAY, 0, STATIC
        LOCFRAME DOVERLAY, 0, STATIC
        ARGFRAME ISTACK, 0, STACK
        ARGFRAME PSTACK, 0, STACK
        ARGFRAME XSTACK, 10, STACK
        ARGFRAME IOVERLAY, 0, STATIC
        ARGFRAME DOVERLAY, 0, STATIC
        FUNCALL GenericApp_Init, cb_ReadConfiguration
        LOCFRAME ISTACK, 0, STACK
        LOCFRAME PSTACK, 0, STACK
        LOCFRAME XSTACK, 10, STACK
        LOCFRAME IOVERLAY, 0, STATIC
        LOCFRAME DOVERLAY, 0, STATIC
        ARGFRAME ISTACK, 0, STACK
        ARGFRAME PSTACK, 0, STACK
        ARGFRAME XSTACK, 10, STACK
        ARGFRAME IOVERLAY, 0, STATIC
        ARGFRAME DOVERLAY, 0, STATIC
        FUNCALL GenericApp_Init, ZDOInitDevice
        LOCFRAME ISTACK, 0, STACK
        LOCFRAME PSTACK, 0, STACK
        LOCFRAME XSTACK, 10, STACK
        LOCFRAME IOVERLAY, 0, STATIC
        LOCFRAME DOVERLAY, 0, STATIC
        ARGFRAME ISTACK, 0, STACK
        ARGFRAME PSTACK, 0, STACK
        ARGFRAME XSTACK, 10, STACK
        ARGFRAME IOVERLAY, 0, STATIC
        ARGFRAME DOVERLAY, 0, STATIC
        FUNCALL GenericApp_Init, serial_init
        LOCFRAME ISTACK, 0, STACK
        LOCFRAME PSTACK, 0, STACK
        LOCFRAME XSTACK, 10, STACK
        LOCFRAME IOVERLAY, 0, STATIC
        LOCFRAME DOVERLAY, 0, STATIC
        ARGFRAME ISTACK, 0, STACK
        ARGFRAME PSTACK, 0, STACK
        ARGFRAME XSTACK, 10, STACK
        ARGFRAME IOVERLAY, 0, STATIC
        ARGFRAME DOVERLAY, 0, STATIC
        FUNCALL GenericApp_Init, init_cc2530
        LOCFRAME ISTACK, 0, STACK
        LOCFRAME PSTACK, 0, STACK
        LOCFRAME XSTACK, 10, STACK
        LOCFRAME IOVERLAY, 0, STATIC
        LOCFRAME DOVERLAY, 0, STATIC
        ARGFRAME ISTACK, 0, STACK
        ARGFRAME PSTACK, 0, STACK
        ARGFRAME XSTACK, 10, STACK
        ARGFRAME IOVERLAY, 0, STATIC
        ARGFRAME DOVERLAY, 0, STATIC
        FUNCALL GenericApp_Init, HalLedSet
        LOCFRAME ISTACK, 0, STACK
        LOCFRAME PSTACK, 0, STACK
        LOCFRAME XSTACK, 10, STACK
        LOCFRAME IOVERLAY, 0, STATIC
        LOCFRAME DOVERLAY, 0, STATIC
        ARGFRAME ISTACK, 0, STACK
        ARGFRAME PSTACK, 0, STACK
        ARGFRAME XSTACK, 10, STACK
        ARGFRAME IOVERLAY, 0, STATIC
        ARGFRAME DOVERLAY, 0, STATIC
        MOV     A,#-0xa
        LCALL   ?BANKED_ENTER_XDATA
        CFI DPH0 load(1, XDATA, add(CFA_XSP16, literal(-1)))
        CFI DPL0 load(1, XDATA, add(CFA_XSP16, literal(-2)))
        CFI ?BRET_EXT load(1, XDATA, add(CFA_XSP16, literal(-3)))
        CFI ?RET_HIGH load(1, XDATA, add(CFA_XSP16, literal(-4)))
        CFI ?RET_LOW load(1, XDATA, add(CFA_XSP16, literal(-5)))
        CFI R7 load(1, XDATA, add(CFA_XSP16, literal(-6)))
        CFI V1 load(1, XDATA, add(CFA_XSP16, literal(-7)))
        CFI V0 load(1, XDATA, add(CFA_XSP16, literal(-8)))
        CFI VB load(1, XDATA, add(CFA_XSP16, literal(-9)))
        CFI R6 load(1, XDATA, add(CFA_XSP16, literal(-10)))
        CFI CFA_SP SP+0
        CFI CFA_XSP16 add(XSP16, 10)
        ; Saved register size: 10
        ; Auto size: 0
        MOV     A,R1
//  575   uint16 size;
//  576   
//  577   GenericApp_TaskID = task_id;
        MOV     DPTR,#GenericApp_TaskID
        MOVX    @DPTR,A
//  578   GenericApp_NwkState = DEV_INIT;
        MOV     DPTR,#GenericApp_NwkState
        MOV     A,#0x1
        MOVX    @DPTR,A
//  579   GenericApp_TransID = 0;
        MOV     DPTR,#GenericApp_TransID
        CLR     A
        MOVX    @DPTR,A
//  580   
//  581   uint8 networkStateNV = ZDO_INITDEV_NEW_NETWORK_STATE;
//  582   devStartModes_t devStartMode = MODE_RESUME; 
//  583   
//  584 
//  585   //GenericApp_DstAddr.addrMode = (afAddrMode_t)AddrNotPresent; //(afAddrMode_t)Addr16Bit;
//  586   GenericApp_DstAddr.addrMode = (afAddrMode_t)Addr16Bit;
        MOV     DPTR,#GenericApp_DstAddr + 8
        MOV     A,#0x2
        MOVX    @DPTR,A
//  587   GenericApp_DstAddr.endPoint = GENERICAPP_ENDPOINT;
        INC     DPTR
        MOV     A,#0xa
        LCALL   ?Subroutine1 & 0xFFFF
//  588   GenericApp_DstAddr.addr.shortAddr = 0xFFFF;
//  589 
//  590   // Fill out the endpoint description.
//  591   GenericApp_epDesc.endPoint = GENERICAPP_ENDPOINT;
??CrossCallReturnLabel_0:
        MOV     DPTR,#GenericApp_epDesc
        MOV     A,#0xa
        MOVX    @DPTR,A
//  592   GenericApp_epDesc.task_id = &GenericApp_TaskID;
        INC     DPTR
        MOV     A,#GenericApp_TaskID & 0xff
        MOVX    @DPTR,A
        INC     DPTR
        MOV     A,#(GenericApp_TaskID >> 8) & 0xff
        MOVX    @DPTR,A
//  593   GenericApp_epDesc.simpleDesc
//  594             = (SimpleDescriptionFormat_t *)&GenericApp_SimpleDesc;
        INC     DPTR
        MOV     A,#GenericApp_SimpleDesc & 0xff
        MOVX    @DPTR,A
        INC     DPTR
        MOV     A,#(GenericApp_SimpleDesc >> 8) & 0xff
        MOVX    @DPTR,A
//  595   GenericApp_epDesc.latencyReq = noLatencyReqs;
        INC     DPTR
        CLR     A
        MOVX    @DPTR,A
//  596 
//  597   // Register the endpoint description with the AF
//  598   afRegister( &GenericApp_epDesc );
        ; Setup parameters for call to function afRegister
        MOV     R2,#GenericApp_epDesc & 0xff
        MOV     R3,#(GenericApp_epDesc >> 8) & 0xff
        LCALL   ??afRegister?relay
//  599 
//  600   // Register for all key events - This app will handle all key events
//  601   RegisterForKeys( GenericApp_TaskID );
        ; Setup parameters for call to function RegisterForKeys
        MOV     DPTR,#GenericApp_TaskID
        MOVX    A,@DPTR
        MOV     R1,A
        LCALL   ??RegisterForKeys?relay
//  602 
//  603   // Update the display
//  604 #if defined ( LCD_SUPPORTED )
//  605   HalLcdWriteString( "GenericApp", HAL_LCD_LINE_1 );
        ; Setup parameters for call to function HalLcdWriteString
        MOV     R1,#0x1
        MOV     R2,#`?<Constant "GenericApp">` & 0xff
        MOV     R3,#(`?<Constant "GenericApp">` >> 8) & 0xff
        LCALL   ??HalLcdWriteString?relay
//  606 #endif
//  607 
//  608   
//  609 #if !defined( ZDO_COORDINATOR )
//  610   ZDO_RegisterForZDOMsg( GenericApp_TaskID, End_Device_Bind_rsp );
//  611   ZDO_RegisterForZDOMsg( GenericApp_TaskID, Match_Desc_rsp );
//  612   
//  613 #endif
//  614   
//  615 #if defined ( BUILD_ALL_DEVICES )
//  616   size = osal_nv_item_len( ZCD_NV_LOGICAL_TYPE );
        ; Setup parameters for call to function osal_nv_item_len
        MOV     R2,#-0x79
        MOV     R3,#0x0
        LCALL   ??osal_nv_item_len?relay
        MOV     ?V0 + 0,R2
        MOV     ?V0 + 1,R3
        MOV     R0,?V0 + 0
        MOV     R1,?V0 + 1
//  617   if( size  <= sizeof(zgDeviceLogicalType) && size != 0 )
        CLR     C
        MOV     A,R0
        SUBB    A,#0x2
        MOV     A,R1
        SUBB    A,#0x0
        JNC     ??GenericApp_Init_0
        MOV     A,R0
        ORL     A,R1
        JZ      ??GenericApp_Init_0
//  618   {
//  619     cb_ReadConfiguration( ZCD_NV_LOGICAL_TYPE, sizeof(zgDeviceLogicalType), &zgDeviceLogicalType);
        ; Setup parameters for call to function cb_ReadConfiguration
        MOV     R4,#zgDeviceLogicalType & 0xff
        MOV     R5,#(zgDeviceLogicalType >> 8) & 0xff
        MOV     R2,#0x1
        MOV     R1,#-0x79
        LCALL   ??cb_ReadConfiguration?relay
//  620   }
//  621   
//  622 #endif
//  623 
//  624 #if defined ( HOLD_AUTO_START )
//  625   if(start_flag == 1)
??GenericApp_Init_0:
        MOV     DPTR,#start_flag
        MOVX    A,@DPTR
        XRL     A,#0x1
        JNZ     ??GenericApp_Init_1
//  626   {
//  627       ZDOInitDevice(0);
        ; Setup parameters for call to function ZDOInitDevice
        MOV     R2,#0x0
        MOV     R3,#0x0
        LCALL   ??ZDOInitDevice?relay
//  628   }
//  629 #endif
//  630   serial_init();
??GenericApp_Init_1:
        ; Setup parameters for call to function serial_init
        LCALL   ??serial_init?relay
//  631   
//  632   init_cc2530();
        ; Setup parameters for call to function init_cc2530
        LCALL   ??init_cc2530?relay
//  633   
//  634   HalLedSet( HAL_LED_2, HAL_LED_MODE_ON );
        ; Setup parameters for call to function HalLedSet
        MOV     R2,#0x1
        MOV     R1,#0x2
        LCALL   ??HalLedSet?relay
//  635   
//  636 }
        MOV     R7,#0x2
        LJMP    ?BANKED_LEAVE_XDATA
        CFI EndBlock cfiBlock8
//  637 
//  638 /*********************************************************************
//  639  * @fn      GenericApp_ProcessEvent
//  640  *
//  641  * @brief   Generic Application Task event processor.  This function
//  642  *          is called to process all events for the task.  Events
//  643  *          include timers, messages and any other user defined events.
//  644  *
//  645  * @param   task_id  - The OSAL assigned task ID.
//  646  * @param   events - events to process.  This is a bit map and can
//  647  *                   contain more than one event.
//  648  *
//  649  * @return  none
//  650  */

        RSEG BANKED_CODE:CODE:NOROOT(0)
//  651 uint16 GenericApp_ProcessEvent( uint8 task_id, uint16 events )
GenericApp_ProcessEvent:
        CFI Block cfiBlock9 Using cfiCommon0
        CFI Function GenericApp_ProcessEvent
        CODE
//  652 {
        FUNCALL GenericApp_ProcessEvent, osal_msg_receive
        LOCFRAME ISTACK, 0, STACK
        LOCFRAME PSTACK, 0, STACK
        LOCFRAME XSTACK, 24, STACK
        LOCFRAME IOVERLAY, 0, STATIC
        LOCFRAME DOVERLAY, 0, STATIC
        ARGFRAME ISTACK, 0, STACK
        ARGFRAME PSTACK, 0, STACK
        ARGFRAME XSTACK, 24, STACK
        ARGFRAME IOVERLAY, 0, STATIC
        ARGFRAME DOVERLAY, 0, STATIC
        FUNCALL GenericApp_ProcessEvent, cb_GetDeviceInfo
        LOCFRAME ISTACK, 0, STACK
        LOCFRAME PSTACK, 0, STACK
        LOCFRAME XSTACK, 24, STACK
        LOCFRAME IOVERLAY, 0, STATIC
        LOCFRAME DOVERLAY, 0, STATIC
        ARGFRAME ISTACK, 0, STACK
        ARGFRAME PSTACK, 0, STACK
        ARGFRAME XSTACK, 24, STACK
        ARGFRAME IOVERLAY, 0, STATIC
        ARGFRAME DOVERLAY, 0, STATIC
        FUNCALL GenericApp_ProcessEvent, osal_msg_deallocate
        LOCFRAME ISTACK, 0, STACK
        LOCFRAME PSTACK, 0, STACK
        LOCFRAME XSTACK, 24, STACK
        LOCFRAME IOVERLAY, 0, STATIC
        LOCFRAME DOVERLAY, 0, STATIC
        ARGFRAME ISTACK, 0, STACK
        ARGFRAME PSTACK, 0, STACK
        ARGFRAME XSTACK, 24, STACK
        ARGFRAME IOVERLAY, 0, STATIC
        ARGFRAME DOVERLAY, 0, STATIC
        FUNCALL GenericApp_ProcessEvent, osal_msg_receive
        LOCFRAME ISTACK, 0, STACK
        LOCFRAME PSTACK, 0, STACK
        LOCFRAME XSTACK, 24, STACK
        LOCFRAME IOVERLAY, 0, STATIC
        LOCFRAME DOVERLAY, 0, STATIC
        ARGFRAME ISTACK, 0, STACK
        ARGFRAME PSTACK, 0, STACK
        ARGFRAME XSTACK, 24, STACK
        ARGFRAME IOVERLAY, 0, STATIC
        ARGFRAME DOVERLAY, 0, STATIC
        FUNCALL GenericApp_ProcessEvent, uprint
        LOCFRAME ISTACK, 0, STACK
        LOCFRAME PSTACK, 0, STACK
        LOCFRAME XSTACK, 24, STACK
        LOCFRAME IOVERLAY, 0, STATIC
        LOCFRAME DOVERLAY, 0, STATIC
        ARGFRAME ISTACK, 0, STACK
        ARGFRAME PSTACK, 0, STACK
        ARGFRAME XSTACK, 24, STACK
        ARGFRAME IOVERLAY, 0, STATIC
        ARGFRAME DOVERLAY, 0, STATIC
        FUNCALL GenericApp_ProcessEvent, ZDO_ParseEPListRsp
        LOCFRAME ISTACK, 0, STACK
        LOCFRAME PSTACK, 0, STACK
        LOCFRAME XSTACK, 24, STACK
        LOCFRAME IOVERLAY, 0, STATIC
        LOCFRAME DOVERLAY, 0, STATIC
        ARGFRAME ISTACK, 0, STACK
        ARGFRAME PSTACK, 0, STACK
        ARGFRAME XSTACK, 24, STACK
        ARGFRAME IOVERLAY, 0, STATIC
        ARGFRAME DOVERLAY, 0, STATIC
        FUNCALL GenericApp_ProcessEvent, osal_mem_free
        LOCFRAME ISTACK, 0, STACK
        LOCFRAME PSTACK, 0, STACK
        LOCFRAME XSTACK, 24, STACK
        LOCFRAME IOVERLAY, 0, STATIC
        LOCFRAME DOVERLAY, 0, STATIC
        ARGFRAME ISTACK, 0, STACK
        ARGFRAME PSTACK, 0, STACK
        ARGFRAME XSTACK, 24, STACK
        ARGFRAME IOVERLAY, 0, STATIC
        ARGFRAME DOVERLAY, 0, STATIC
        FUNCALL GenericApp_ProcessEvent, HalLedSet
        LOCFRAME ISTACK, 0, STACK
        LOCFRAME PSTACK, 0, STACK
        LOCFRAME XSTACK, 24, STACK
        LOCFRAME IOVERLAY, 0, STATIC
        LOCFRAME DOVERLAY, 0, STATIC
        ARGFRAME ISTACK, 0, STACK
        ARGFRAME PSTACK, 0, STACK
        ARGFRAME XSTACK, 24, STACK
        ARGFRAME IOVERLAY, 0, STATIC
        ARGFRAME DOVERLAY, 0, STATIC
        FUNCALL GenericApp_ProcessEvent, HalLedSet
        LOCFRAME ISTACK, 0, STACK
        LOCFRAME PSTACK, 0, STACK
        LOCFRAME XSTACK, 24, STACK
        LOCFRAME IOVERLAY, 0, STATIC
        LOCFRAME DOVERLAY, 0, STATIC
        ARGFRAME ISTACK, 0, STACK
        ARGFRAME PSTACK, 0, STACK
        ARGFRAME XSTACK, 24, STACK
        ARGFRAME IOVERLAY, 0, STATIC
        ARGFRAME DOVERLAY, 0, STATIC
        FUNCALL GenericApp_ProcessEvent, GenericApp_MessageMSGCB
        LOCFRAME ISTACK, 0, STACK
        LOCFRAME PSTACK, 0, STACK
        LOCFRAME XSTACK, 24, STACK
        LOCFRAME IOVERLAY, 0, STATIC
        LOCFRAME DOVERLAY, 0, STATIC
        ARGFRAME ISTACK, 0, STACK
        ARGFRAME PSTACK, 0, STACK
        ARGFRAME XSTACK, 24, STACK
        ARGFRAME IOVERLAY, 0, STATIC
        ARGFRAME DOVERLAY, 0, STATIC
        FUNCALL GenericApp_ProcessEvent, osal_strlen
        LOCFRAME ISTACK, 0, STACK
        LOCFRAME PSTACK, 0, STACK
        LOCFRAME XSTACK, 29, STACK
        LOCFRAME IOVERLAY, 0, STATIC
        LOCFRAME DOVERLAY, 0, STATIC
        ARGFRAME ISTACK, 0, STACK
        ARGFRAME PSTACK, 0, STACK
        ARGFRAME XSTACK, 29, STACK
        ARGFRAME IOVERLAY, 0, STATIC
        ARGFRAME DOVERLAY, 0, STATIC
        FUNCALL GenericApp_ProcessEvent, AF_DataRequest
        LOCFRAME ISTACK, 0, STACK
        LOCFRAME PSTACK, 0, STACK
        LOCFRAME XSTACK, 33, STACK
        LOCFRAME IOVERLAY, 0, STATIC
        LOCFRAME DOVERLAY, 0, STATIC
        ARGFRAME ISTACK, 0, STACK
        ARGFRAME PSTACK, 0, STACK
        ARGFRAME XSTACK, 33, STACK
        ARGFRAME IOVERLAY, 0, STATIC
        ARGFRAME DOVERLAY, 0, STATIC
        FUNCALL GenericApp_ProcessEvent, osal_start_timerEx
        LOCFRAME ISTACK, 0, STACK
        LOCFRAME PSTACK, 0, STACK
        LOCFRAME XSTACK, 24, STACK
        LOCFRAME IOVERLAY, 0, STATIC
        LOCFRAME DOVERLAY, 0, STATIC
        ARGFRAME ISTACK, 0, STACK
        ARGFRAME PSTACK, 0, STACK
        ARGFRAME XSTACK, 24, STACK
        ARGFRAME IOVERLAY, 0, STATIC
        ARGFRAME DOVERLAY, 0, STATIC
        MOV     A,#-0xc
        LCALL   ?BANKED_ENTER_XDATA
        CFI DPH0 load(1, XDATA, add(CFA_XSP16, literal(-1)))
        CFI DPL0 load(1, XDATA, add(CFA_XSP16, literal(-2)))
        CFI ?BRET_EXT load(1, XDATA, add(CFA_XSP16, literal(-3)))
        CFI ?RET_HIGH load(1, XDATA, add(CFA_XSP16, literal(-4)))
        CFI ?RET_LOW load(1, XDATA, add(CFA_XSP16, literal(-5)))
        CFI R7 load(1, XDATA, add(CFA_XSP16, literal(-6)))
        CFI V3 load(1, XDATA, add(CFA_XSP16, literal(-7)))
        CFI V2 load(1, XDATA, add(CFA_XSP16, literal(-8)))
        CFI V1 load(1, XDATA, add(CFA_XSP16, literal(-9)))
        CFI V0 load(1, XDATA, add(CFA_XSP16, literal(-10)))
        CFI VB load(1, XDATA, add(CFA_XSP16, literal(-11)))
        CFI R6 load(1, XDATA, add(CFA_XSP16, literal(-12)))
        CFI CFA_SP SP+0
        CFI CFA_XSP16 add(XSP16, 12)
        ; Saved register size: 12
        ; Auto size: 12
        MOV     A,#-0xc
        LCALL   ?ALLOC_XSTACK8
        CFI CFA_XSP16 add(XSP16, 24)
        MOV     ?V0 + 0,R2
        MOV     ?V0 + 1,R3
//  653   afIncomingMSGPacket_t *MSGpkt;
//  654   afDataConfirm_t *afDataConfirm;
//  655 
//  656   // Data Confirmation message fields
//  657   byte sentEP;
//  658   ZStatus_t sentStatus;
//  659   byte sentTransID;       // This should match the value sent
//  660   (void)task_id;  // Intentionally unreferenced parameter
//  661 
//  662   if ( events & SYS_EVENT_MSG )
        MOV     A,R3
        ANL     A,#0x80
        JNZ     $+5
        LJMP    ??GenericApp_ProcessEvent_0 & 0xFFFF
//  663   {
//  664     MSGpkt = (afIncomingMSGPacket_t *)osal_msg_receive( GenericApp_TaskID );
        ; Setup parameters for call to function osal_msg_receive
        SJMP    ??GenericApp_ProcessEvent_1
//  665     while ( MSGpkt )
//  666     {
//  667       switch ( MSGpkt->hdr.event )
//  668       {
//  669         case ZDO_CB_MSG:
//  670           GenericApp_ProcessZDOMsgs( (zdoIncomingMsg_t *)MSGpkt );
//  671           break;
//  672 
//  673         case KEY_CHANGE:
//  674           GenericApp_HandleKeys( ((keyChange_t *)MSGpkt)->state, ((keyChange_t *)MSGpkt)->keys );
//  675           break;
//  676 
//  677         case AF_DATA_CONFIRM_CMD:
//  678           afDataConfirm = (afDataConfirm_t *)MSGpkt;
//  679           sentEP = afDataConfirm->endpoint;
//  680           sentStatus = afDataConfirm->hdr.status;
//  681           sentTransID = afDataConfirm->transID;
//  682           (void)sentEP;
//  683           (void)sentTransID;
//  684 
//  685           // Action taken when confirmation is received.
//  686           if ( sentStatus != ZSuccess )
//  687           {
//  688             
//  689           }
//  690           break;
//  691 
//  692         case AF_INCOMING_MSG_CMD:
//  693           GenericApp_MessageMSGCB( MSGpkt );
//  694           
//  695           
//  696           break;
//  697 
//  698         case ZDO_STATE_CHANGE:
//  699           GenericApp_NwkState = (devStates_t)(MSGpkt->hdr.status);
??GenericApp_ProcessEvent_2:
        INC     DPTR
        MOVX    A,@DPTR
        MOV     DPTR,#GenericApp_NwkState
        MOVX    @DPTR,A
//  700           if ( (GenericApp_NwkState == DEV_ZB_COORD)
//  701               || (GenericApp_NwkState == DEV_ROUTER)
//  702               || (GenericApp_NwkState == DEV_END_DEVICE) )
        XRL     A,#0x9
        JZ      ??GenericApp_ProcessEvent_3
        MOVX    A,@DPTR
        XRL     A,#0x7
        JZ      ??GenericApp_ProcessEvent_3
        MOVX    A,@DPTR
        XRL     A,#0x6
        JNZ     ??GenericApp_ProcessEvent_4
//  703           {
//  704             
//  705             /*
//  706             osal_start_timerEx( GenericApp_TaskID,
//  707                                 GENERICAPP_SEND_MSG_EVT,
//  708                                 GENERICAPP_SEND_MSG_TIMEOUT );
//  709             */
//  710             cb_GetDeviceInfo(ZB_INFO_PARENT_SHORT_ADDR, &parentShortAddr);
??GenericApp_ProcessEvent_3:
        ; Setup parameters for call to function cb_GetDeviceInfo
        MOV     R2,#parentShortAddr & 0xff
        MOV     R3,#(parentShortAddr >> 8) & 0xff
        MOV     R1,#0x3
        LCALL   ??cb_GetDeviceInfo?relay
//  711           }
//  712           break;
//  713 
//  714         default:
//  715           break;
//  716       }
//  717 
//  718       // Release the memory
//  719       osal_msg_deallocate( (uint8 *)MSGpkt );
??GenericApp_ProcessEvent_4:
        ; Setup parameters for call to function osal_msg_deallocate
        MOV     A,R6
        MOV     R2,A
        MOV     A,R7
        MOV     R3,A
        LCALL   ??osal_msg_deallocate?relay
//  720 
//  721       // Next
//  722       MSGpkt = (afIncomingMSGPacket_t *)osal_msg_receive( GenericApp_TaskID );
        ; Setup parameters for call to function osal_msg_receive
??GenericApp_ProcessEvent_1:
        MOV     DPTR,#GenericApp_TaskID
        MOVX    A,@DPTR
        MOV     R1,A
        LCALL   ??osal_msg_receive?relay
        MOV     ?V0 + 2,R2
        MOV     ?V0 + 3,R3
        MOV     R6,?V0 + 2
        MOV     R7,?V0 + 3
        MOV     A,R6
        ORL     A,R7
        JNZ     $+5
        LJMP    ??GenericApp_ProcessEvent_5 & 0xFFFF
        MOV     DPL,R6
        MOV     DPH,R7
        MOVX    A,@DPTR
        ADD     A,#-0x1a
        JZ      ??GenericApp_ProcessEvent_6
        ADD     A,#0x49
        JZ      ??GenericApp_ProcessEvent_2
        ADD     A,#-0x2
        JNZ     ??GenericApp_ProcessEvent_4
        MOV     A,R6
        ADD     A,#0xc
        MOV     DPL,A
        MOV     A,R7
        ADDC    A,#0x0
        MOV     DPH,A
        MOVX    A,@DPTR
        MOV     ?V0 + 2,A
        INC     DPTR
        MOVX    A,@DPTR
        MOV     ?V0 + 3,A
        MOV     R0,#?V0 + 2
        LCALL   ?US_SWITCH_SPARSE
`?<Jumptable for GenericApp_ProcessEvent>_0`:
        DATA
        DATA16
        DATA
        DATA16
        DATA
        DATA16
        DW        0
        DATA
        DATA16
        DATA
        DATA16
        DATA
        DATA16
        DW        2
        DATA
        DATA16
        DATA
        DATA16
        DATA
        DATA16
        DW        32774
        DATA
        DATA16
        DATA
        DATA16
        DATA
        DATA16
        DW        ??GenericApp_ProcessEvent_7
        DATA
        DATA16
        DATA
        DATA16
        DATA
        DATA16
        DW        32800
        DATA
        DATA16
        DATA
        DATA16
        DATA
        DATA16
        DW        ??GenericApp_ProcessEvent_8
        DATA
        DATA16
        DATA
        DATA16
        DW        ??GenericApp_ProcessEvent_4
        CODE
??GenericApp_ProcessEvent_7:
        ; Setup parameters for call to function uprint
        MOV     R2,#`?<Constant "Match_Decs_rsp">` & 0xff
        MOV     R3,#(`?<Constant "Match_Decs_rsp">` >> 8) & 0xff
        LCALL   ??uprint?relay
        ; Setup parameters for call to function ZDO_ParseEPListRsp
        MOV     A,R6
        MOV     R2,A
        MOV     A,R7
        MOV     R3,A
        LCALL   ??ZDO_ParseEPListRsp?relay
        MOV     A,R2
        ORL     A,R3
        JZ      ??GenericApp_ProcessEvent_4
        MOV     DPL,R2
        MOV     DPH,R3
        MOVX    A,@DPTR
        JNZ     ??GenericApp_ProcessEvent_9
        INC     DPTR
        INC     DPTR
        INC     DPTR
        MOVX    A,@DPTR
        JZ      ??GenericApp_ProcessEvent_9
        MOV     DPTR,#GenericApp_DstAddr + 8
        MOV     A,#0x2
        LCALL   ?Subroutine1 & 0xFFFF
??CrossCallReturnLabel_1:
        MOV     DPL,R2
        MOV     DPH,R3
        INC     DPTR
        INC     DPTR
        INC     DPTR
        INC     DPTR
        MOVX    A,@DPTR
        MOV     DPTR,#GenericApp_DstAddr + 9
        MOVX    @DPTR,A
??GenericApp_ProcessEvent_9:
        ; Setup parameters for call to function osal_mem_free
        LCALL   ??osal_mem_free?relay
        LJMP    ??GenericApp_ProcessEvent_4 & 0xFFFF
??GenericApp_ProcessEvent_8:
        MOV     A,R6
        ADD     A,#0x13
        MOV     DPL,A
        MOV     A,R7
        LCALL   ?Subroutine4 & 0xFFFF
??CrossCallReturnLabel_6:
        JNZ     ??GenericApp_ProcessEvent_10
        ; Setup parameters for call to function HalLedSet
        MOV     R2,#0x1
??GenericApp_ProcessEvent_11:
        MOV     R1,#0x2
        LCALL   ??HalLedSet?relay
        LJMP    ??GenericApp_ProcessEvent_4 & 0xFFFF
??GenericApp_ProcessEvent_10:
        ; Setup parameters for call to function HalLedSet
        MOV     R2,#0x4
        SJMP    ??GenericApp_ProcessEvent_11
??GenericApp_ProcessEvent_6:
        ; Setup parameters for call to function GenericApp_MessageMSGCB
        MOV     A,R6
        MOV     R2,A
        MOV     A,R7
        MOV     R3,A
        LCALL   ??GenericApp_MessageMSGCB?relay
        LJMP    ??GenericApp_ProcessEvent_4 & 0xFFFF
//  723     }
//  724 
//  725     // return unprocessed events
//  726     return (events ^ SYS_EVENT_MSG);
??GenericApp_ProcessEvent_5:
        MOV     R2,?V0 + 0
        MOV     A,?V0 + 1
        XRL     A,#0x80
        MOV     R3,A
        LJMP    ??GenericApp_ProcessEvent_12 & 0xFFFF
//  727   }
//  728 
//  729   // Send a message out - This event is generated by a timer
//  730   //  (setup in GenericApp_Init()).
//  731   
//  732   if ( events & GENERICAPP_SEND_MSG_EVT )
??GenericApp_ProcessEvent_0:
        MOV     A,R2
        MOV     C,0xE0 /* A   */.0
        JC      $+5
        LJMP    ??GenericApp_ProcessEvent_13 & 0xFFFF
//  733   {
//  734     
//  735     GenericApp_SendTheMessage();
        MOV     DPL,?XSP + 0
        MOV     DPH,?XSP + 1
        MOV     R4,DPL
        MOV     R5,DPH
        MOV     DPH,#(`?<Constant "Hello World">` >> 8) & 0xff
        MOV     DPL,#`?<Constant "Hello World">` & 0xff
        MOV     A,#0xc
        LCALL   ?MOVE_LONG8_XDATA_XDATA
        ; Setup parameters for call to function AF_DataRequest
        MOV     ?V0 + 2,#0x1e
        MOV     R0,#?V0 + 2
        LCALL   ?PUSH_XSTACK_I_ONE
        CFI CFA_XSP16 add(XSP16, 25)
        MOV     ?V0 + 2,#GenericApp_TransID & 0xff
        MOV     ?V0 + 3,#(GenericApp_TransID >> 8) & 0xff
        MOV     R0,#?V0 + 2
        LCALL   ?PUSH_XSTACK_I_TWO
        CFI CFA_XSP16 add(XSP16, 27)
        MOV     A,#0x3
        LCALL   ?XSTACK_DISP0_8
        MOV     ?V0 + 2,DPL
        MOV     ?V0 + 3,DPH
        MOV     R0,#?V0 + 2
        LCALL   ?PUSH_XSTACK_I_TWO
        CFI CFA_XSP16 add(XSP16, 29)
        ; Setup parameters for call to function osal_strlen
        MOV     A,#0x5
        LCALL   ?XSTACK_DISP0_8
        MOV     R2,DPL
        MOV     R3,DPH
        LCALL   ??osal_strlen?relay
        MOV     A,R2
        ADD     A,#0x1
        MOV     ?V0 + 2,A
        CLR     A
        ADDC    A,#0x0
        MOV     ?V0 + 3,A
        MOV     R0,#?V0 + 2
        LCALL   ?PUSH_XSTACK_I_TWO
        CFI CFA_XSP16 add(XSP16, 31)
        MOV     ?V0 + 2,#0x1
        MOV     ?V0 + 3,#0x0
        MOV     R0,#?V0 + 2
        LCALL   ?PUSH_XSTACK_I_TWO
        CFI CFA_XSP16 add(XSP16, 33)
        MOV     R1,#0x20
        MOV     R4,#GenericApp_epDesc & 0xff
        MOV     R5,#(GenericApp_epDesc >> 8) & 0xff
        MOV     R2,#GenericApp_DstAddr & 0xff
        MOV     R3,#(GenericApp_DstAddr >> 8) & 0xff
        LCALL   ??Subroutine11_0 & 0xFFFF
??CrossCallReturnLabel_19:
        LCALL   ?DEALLOC_XSTACK8
        CFI CFA_XSP16 add(XSP16, 24)
//  736 
//  737     osal_start_timerEx( GenericApp_TaskID,
//  738                         GENERICAPP_SEND_MSG_EVT,
//  739                         GENERICAPP_SEND_MSG_TIMEOUT );
        ; Setup parameters for call to function osal_start_timerEx
        MOV     R4,#-0x78
        MOV     R5,#0x13
        MOV     R2,#0x1
        MOV     R3,#0x0
        MOV     DPTR,#GenericApp_TaskID
        MOVX    A,@DPTR
        MOV     R1,A
        LCALL   ??osal_start_timerEx?relay
//  740 
//  741     
//  742     return (events ^ GENERICAPP_SEND_MSG_EVT);
        MOV     A,?V0 + 0
        XRL     A,#0x1
        MOV     R2,A
        MOV     R3,?V0 + 1
        SJMP    ??GenericApp_ProcessEvent_12
//  743   }
//  744 
//  745   
//  746 #if defined( IAR_ARMCM3_LM )
//  747   // Receive a message from the RTOS queue
//  748   if ( events & GENERICAPP_RTOS_MSG_EVT )
//  749   {
//  750     // Process message from RTOS queue
//  751     GenericApp_ProcessRtosMessage();
//  752 
//  753     // return unprocessed events
//  754     return (events ^ GENERICAPP_RTOS_MSG_EVT);
//  755   }
//  756 #endif
//  757 
//  758   // Discard unknown events
//  759   return 0;
??GenericApp_ProcessEvent_13:
        MOV     R2,#0x0
        MOV     R3,#0x0
??GenericApp_ProcessEvent_12:
        MOV     A,#0xc
        LCALL   ?DEALLOC_XSTACK8
        CFI CFA_XSP16 add(XSP16, 12)
        LJMP    ?Subroutine0 & 0xFFFF
        CFI EndBlock cfiBlock9
//  760 }

        RSEG BANKED_CODE:CODE:NOROOT(0)
?Subroutine7:
        CFI Block cfiCond10 Using cfiCommon0
        CFI NoFunction
        CFI Conditional ??CrossCallReturnLabel_16
        CFI R6 load(1, XDATA, add(CFA_XSP16, literal(-15)))
        CFI VB load(1, XDATA, add(CFA_XSP16, literal(-14)))
        CFI V0 load(1, XDATA, add(CFA_XSP16, literal(-13)))
        CFI V1 load(1, XDATA, add(CFA_XSP16, literal(-12)))
        CFI V2 load(1, XDATA, add(CFA_XSP16, literal(-11)))
        CFI V3 load(1, XDATA, add(CFA_XSP16, literal(-10)))
        CFI V4 load(1, XDATA, add(CFA_XSP16, literal(-9)))
        CFI V5 load(1, XDATA, add(CFA_XSP16, literal(-8)))
        CFI V6 load(1, XDATA, add(CFA_XSP16, literal(-7)))
        CFI R7 load(1, XDATA, add(CFA_XSP16, literal(-6)))
        CFI ?RET_LOW load(1, XDATA, add(CFA_XSP16, literal(-5)))
        CFI ?RET_HIGH load(1, XDATA, add(CFA_XSP16, literal(-4)))
        CFI ?BRET_EXT load(1, XDATA, add(CFA_XSP16, literal(-3)))
        CFI DPL0 load(1, XDATA, add(CFA_XSP16, literal(-2)))
        CFI DPH0 load(1, XDATA, add(CFA_XSP16, literal(-1)))
        CFI CFA_SP SP+0
        CFI CFA_XSP16 add(XSP16, 36)
        CFI Block cfiCond11 Using cfiCommon0
        CFI (cfiCond11) NoFunction
        CFI (cfiCond11) Conditional ??CrossCallReturnLabel_17
        CFI (cfiCond11) R6 load(1, XDATA, add(CFA_XSP16, literal(-16)))
        CFI (cfiCond11) VB load(1, XDATA, add(CFA_XSP16, literal(-15)))
        CFI (cfiCond11) V0 load(1, XDATA, add(CFA_XSP16, literal(-14)))
        CFI (cfiCond11) V1 load(1, XDATA, add(CFA_XSP16, literal(-13)))
        CFI (cfiCond11) V2 load(1, XDATA, add(CFA_XSP16, literal(-12)))
        CFI (cfiCond11) V3 load(1, XDATA, add(CFA_XSP16, literal(-11)))
        CFI (cfiCond11) V4 load(1, XDATA, add(CFA_XSP16, literal(-10)))
        CFI (cfiCond11) V5 load(1, XDATA, add(CFA_XSP16, literal(-9)))
        CFI (cfiCond11) V6 load(1, XDATA, add(CFA_XSP16, literal(-8)))
        CFI (cfiCond11) V7 load(1, XDATA, add(CFA_XSP16, literal(-7)))
        CFI (cfiCond11) R7 load(1, XDATA, add(CFA_XSP16, literal(-6)))
        CFI (cfiCond11) ?RET_LOW load(1, XDATA, add(CFA_XSP16, literal(-5)))
        CFI (cfiCond11) ?RET_HIGH load(1, XDATA, add(CFA_XSP16, literal(-4)))
        CFI (cfiCond11) ?BRET_EXT load(1, XDATA, add(CFA_XSP16, literal(-3)))
        CFI (cfiCond11) DPL0 load(1, XDATA, add(CFA_XSP16, literal(-2)))
        CFI (cfiCond11) DPH0 load(1, XDATA, add(CFA_XSP16, literal(-1)))
        CFI (cfiCond11) CFA_SP SP+0
        CFI (cfiCond11) CFA_XSP16 add(XSP16, 229)
        CFI Block cfiPicker12 Using cfiCommon1
        CFI (cfiPicker12) NoFunction
        CFI (cfiPicker12) Picker
        MOV     R2,DPL
        MOV     R3,DPH
        CFI EndBlock cfiCond10
        CFI EndBlock cfiCond11
        CFI EndBlock cfiPicker12
        REQUIRE ??Subroutine11_0
        ; // Fall through to label ??Subroutine11_0

        RSEG BANKED_CODE:CODE:NOROOT(0)
??Subroutine11_0:
        CFI Block cfiCond13 Using cfiCommon0
        CFI NoFunction
        CFI Conditional ??CrossCallReturnLabel_18
        CFI R6 load(1, XDATA, add(CFA_XSP16, literal(-16)))
        CFI VB load(1, XDATA, add(CFA_XSP16, literal(-15)))
        CFI V0 load(1, XDATA, add(CFA_XSP16, literal(-14)))
        CFI V1 load(1, XDATA, add(CFA_XSP16, literal(-13)))
        CFI V2 load(1, XDATA, add(CFA_XSP16, literal(-12)))
        CFI V3 load(1, XDATA, add(CFA_XSP16, literal(-11)))
        CFI V4 load(1, XDATA, add(CFA_XSP16, literal(-10)))
        CFI V5 load(1, XDATA, add(CFA_XSP16, literal(-9)))
        CFI V6 load(1, XDATA, add(CFA_XSP16, literal(-8)))
        CFI V7 load(1, XDATA, add(CFA_XSP16, literal(-7)))
        CFI R7 load(1, XDATA, add(CFA_XSP16, literal(-6)))
        CFI ?RET_LOW load(1, XDATA, add(CFA_XSP16, literal(-5)))
        CFI ?RET_HIGH load(1, XDATA, add(CFA_XSP16, literal(-4)))
        CFI ?BRET_EXT load(1, XDATA, add(CFA_XSP16, literal(-3)))
        CFI DPL0 load(1, XDATA, add(CFA_XSP16, literal(-2)))
        CFI DPH0 load(1, XDATA, add(CFA_XSP16, literal(-1)))
        CFI CFA_SP SP+0
        CFI CFA_XSP16 add(XSP16, 229)
        CFI Block cfiCond14 Using cfiCommon0
        CFI (cfiCond14) NoFunction
        CFI (cfiCond14) Conditional ??CrossCallReturnLabel_19
        CFI (cfiCond14) R6 load(1, XDATA, add(CFA_XSP16, literal(-12)))
        CFI (cfiCond14) VB load(1, XDATA, add(CFA_XSP16, literal(-11)))
        CFI (cfiCond14) V0 load(1, XDATA, add(CFA_XSP16, literal(-10)))
        CFI (cfiCond14) V1 load(1, XDATA, add(CFA_XSP16, literal(-9)))
        CFI (cfiCond14) V2 load(1, XDATA, add(CFA_XSP16, literal(-8)))
        CFI (cfiCond14) V3 load(1, XDATA, add(CFA_XSP16, literal(-7)))
        CFI (cfiCond14) R7 load(1, XDATA, add(CFA_XSP16, literal(-6)))
        CFI (cfiCond14) ?RET_LOW load(1, XDATA, add(CFA_XSP16, literal(-5)))
        CFI (cfiCond14) ?RET_HIGH load(1, XDATA, add(CFA_XSP16, literal(-4)))
        CFI (cfiCond14) ?BRET_EXT load(1, XDATA, add(CFA_XSP16, literal(-3)))
        CFI (cfiCond14) DPL0 load(1, XDATA, add(CFA_XSP16, literal(-2)))
        CFI (cfiCond14) DPH0 load(1, XDATA, add(CFA_XSP16, literal(-1)))
        CFI (cfiCond14) CFA_SP SP+0
        CFI (cfiCond14) CFA_XSP16 add(XSP16, 33)
        CFI Block cfiCond15 Using cfiCommon0
        CFI (cfiCond15) NoFunction
        CFI (cfiCond15) Conditional ??CrossCallReturnLabel_16
        CFI (cfiCond15) R6 load(1, XDATA, add(CFA_XSP16, literal(-15)))
        CFI (cfiCond15) VB load(1, XDATA, add(CFA_XSP16, literal(-14)))
        CFI (cfiCond15) V0 load(1, XDATA, add(CFA_XSP16, literal(-13)))
        CFI (cfiCond15) V1 load(1, XDATA, add(CFA_XSP16, literal(-12)))
        CFI (cfiCond15) V2 load(1, XDATA, add(CFA_XSP16, literal(-11)))
        CFI (cfiCond15) V3 load(1, XDATA, add(CFA_XSP16, literal(-10)))
        CFI (cfiCond15) V4 load(1, XDATA, add(CFA_XSP16, literal(-9)))
        CFI (cfiCond15) V5 load(1, XDATA, add(CFA_XSP16, literal(-8)))
        CFI (cfiCond15) V6 load(1, XDATA, add(CFA_XSP16, literal(-7)))
        CFI (cfiCond15) R7 load(1, XDATA, add(CFA_XSP16, literal(-6)))
        CFI (cfiCond15) ?RET_LOW load(1, XDATA, add(CFA_XSP16, literal(-5)))
        CFI (cfiCond15) ?RET_HIGH load(1, XDATA, add(CFA_XSP16, literal(-4)))
        CFI (cfiCond15) ?BRET_EXT load(1, XDATA, add(CFA_XSP16, literal(-3)))
        CFI (cfiCond15) DPL0 load(1, XDATA, add(CFA_XSP16, literal(-2)))
        CFI (cfiCond15) DPH0 load(1, XDATA, add(CFA_XSP16, literal(-1)))
        CFI (cfiCond15) CFA_SP SP+0
        CFI (cfiCond15) CFA_XSP16 add(XSP16, 36)
        CFI Block cfiCond16 Using cfiCommon0
        CFI (cfiCond16) NoFunction
        CFI (cfiCond16) Conditional ??CrossCallReturnLabel_17
        CFI (cfiCond16) R6 load(1, XDATA, add(CFA_XSP16, literal(-16)))
        CFI (cfiCond16) VB load(1, XDATA, add(CFA_XSP16, literal(-15)))
        CFI (cfiCond16) V0 load(1, XDATA, add(CFA_XSP16, literal(-14)))
        CFI (cfiCond16) V1 load(1, XDATA, add(CFA_XSP16, literal(-13)))
        CFI (cfiCond16) V2 load(1, XDATA, add(CFA_XSP16, literal(-12)))
        CFI (cfiCond16) V3 load(1, XDATA, add(CFA_XSP16, literal(-11)))
        CFI (cfiCond16) V4 load(1, XDATA, add(CFA_XSP16, literal(-10)))
        CFI (cfiCond16) V5 load(1, XDATA, add(CFA_XSP16, literal(-9)))
        CFI (cfiCond16) V6 load(1, XDATA, add(CFA_XSP16, literal(-8)))
        CFI (cfiCond16) V7 load(1, XDATA, add(CFA_XSP16, literal(-7)))
        CFI (cfiCond16) R7 load(1, XDATA, add(CFA_XSP16, literal(-6)))
        CFI (cfiCond16) ?RET_LOW load(1, XDATA, add(CFA_XSP16, literal(-5)))
        CFI (cfiCond16) ?RET_HIGH load(1, XDATA, add(CFA_XSP16, literal(-4)))
        CFI (cfiCond16) ?BRET_EXT load(1, XDATA, add(CFA_XSP16, literal(-3)))
        CFI (cfiCond16) DPL0 load(1, XDATA, add(CFA_XSP16, literal(-2)))
        CFI (cfiCond16) DPH0 load(1, XDATA, add(CFA_XSP16, literal(-1)))
        CFI (cfiCond16) CFA_SP SP+0
        CFI (cfiCond16) CFA_XSP16 add(XSP16, 229)
        CFI Block cfiPicker17 Using cfiCommon1
        CFI (cfiPicker17) NoFunction
        CFI (cfiPicker17) Picker
        LCALL   ??AF_DataRequest?relay
        MOV     A,#0x9
        RET
        CFI EndBlock cfiCond13
        CFI EndBlock cfiCond14
        CFI EndBlock cfiCond15
        CFI EndBlock cfiCond16
        CFI EndBlock cfiPicker17

        RSEG BANKED_CODE:CODE:NOROOT(0)
?Subroutine1:
        CFI Block cfiCond18 Using cfiCommon0
        CFI NoFunction
        CFI Conditional ??CrossCallReturnLabel_0
        CFI R6 load(1, XDATA, add(CFA_XSP16, literal(-10)))
        CFI VB load(1, XDATA, add(CFA_XSP16, literal(-9)))
        CFI V0 load(1, XDATA, add(CFA_XSP16, literal(-8)))
        CFI V1 load(1, XDATA, add(CFA_XSP16, literal(-7)))
        CFI R7 load(1, XDATA, add(CFA_XSP16, literal(-6)))
        CFI ?RET_LOW load(1, XDATA, add(CFA_XSP16, literal(-5)))
        CFI ?RET_HIGH load(1, XDATA, add(CFA_XSP16, literal(-4)))
        CFI ?BRET_EXT load(1, XDATA, add(CFA_XSP16, literal(-3)))
        CFI DPL0 load(1, XDATA, add(CFA_XSP16, literal(-2)))
        CFI DPH0 load(1, XDATA, add(CFA_XSP16, literal(-1)))
        CFI CFA_SP SP+0
        CFI CFA_XSP16 add(XSP16, 10)
        CFI Block cfiCond19 Using cfiCommon0
        CFI (cfiCond19) NoFunction
        CFI (cfiCond19) Conditional ??CrossCallReturnLabel_1
        CFI (cfiCond19) R6 load(1, XDATA, add(CFA_XSP16, literal(-12)))
        CFI (cfiCond19) VB load(1, XDATA, add(CFA_XSP16, literal(-11)))
        CFI (cfiCond19) V0 load(1, XDATA, add(CFA_XSP16, literal(-10)))
        CFI (cfiCond19) V1 load(1, XDATA, add(CFA_XSP16, literal(-9)))
        CFI (cfiCond19) V2 load(1, XDATA, add(CFA_XSP16, literal(-8)))
        CFI (cfiCond19) V3 load(1, XDATA, add(CFA_XSP16, literal(-7)))
        CFI (cfiCond19) R7 load(1, XDATA, add(CFA_XSP16, literal(-6)))
        CFI (cfiCond19) ?RET_LOW load(1, XDATA, add(CFA_XSP16, literal(-5)))
        CFI (cfiCond19) ?RET_HIGH load(1, XDATA, add(CFA_XSP16, literal(-4)))
        CFI (cfiCond19) ?BRET_EXT load(1, XDATA, add(CFA_XSP16, literal(-3)))
        CFI (cfiCond19) DPL0 load(1, XDATA, add(CFA_XSP16, literal(-2)))
        CFI (cfiCond19) DPH0 load(1, XDATA, add(CFA_XSP16, literal(-1)))
        CFI (cfiCond19) CFA_SP SP+0
        CFI (cfiCond19) CFA_XSP16 add(XSP16, 24)
        CFI Block cfiPicker20 Using cfiCommon1
        CFI (cfiPicker20) NoFunction
        CFI (cfiPicker20) Picker
        MOVX    @DPTR,A
        MOV     DPTR,#GenericApp_DstAddr
        MOV     A,#-0x1
        MOVX    @DPTR,A
        INC     DPTR
        MOVX    @DPTR,A
        RET
        CFI EndBlock cfiCond18
        CFI EndBlock cfiCond19
        CFI EndBlock cfiPicker20
//  761 
//  762 /*********************************************************************
//  763  * Event Generation Functions
//  764  */
//  765 
//  766 /*********************************************************************
//  767  * @fn      GenericApp_ProcessZDOMsgs()
//  768  *
//  769  * @brief   Process response messages
//  770  *
//  771  * @param   none
//  772  *
//  773  * @return  none
//  774  */
//  775 static void GenericApp_ProcessZDOMsgs( zdoIncomingMsg_t *inMsg )
//  776 {
//  777   switch ( inMsg->clusterID )
//  778   {
//  779     case End_Device_Bind_rsp:
//  780       if ( ZDO_ParseBindRsp( inMsg ) == ZSuccess )
//  781       {
//  782         // Light LED
//  783         HalLedSet( HAL_LED_2, HAL_LED_MODE_ON );
//  784       }
//  785 #if defined( BLINK_LEDS )
//  786       else
//  787       {
//  788         // Flash LED to show failure
//  789         HalLedSet ( HAL_LED_2, HAL_LED_MODE_FLASH );
//  790       }
//  791 #endif
//  792       break;
//  793 
//  794     case Match_Desc_rsp:
//  795       {
//  796         uprint("Match_Decs_rsp");
//  797         ZDO_ActiveEndpointRsp_t *pRsp = ZDO_ParseEPListRsp( inMsg );
//  798         if ( pRsp )
//  799         {
//  800           if ( pRsp->status == ZSuccess && pRsp->cnt )
//  801           {
//  802             GenericApp_DstAddr.addrMode = (afAddrMode_t)Addr16Bit;
//  803             //GenericApp_DstAddr.addr.shortAddr = pRsp->nwkAddr;
//  804             GenericApp_DstAddr.addr.shortAddr = 0xFFFF;
//  805             
//  806             // Take the first endpoint, Can be changed to search through endpoints
//  807             GenericApp_DstAddr.endPoint = pRsp->epList[0];
//  808 
//  809             // Light LED
//  810             //HalLedSet( HAL_LED_2, HAL_LED_MODE_ON );
//  811           }
//  812           osal_mem_free( pRsp );
//  813         }
//  814       }
//  815       break;
//  816   }
//  817 }
//  818 
//  819 /*********************************************************************
//  820  * @fn      GenericApp_HandleKeys
//  821  *
//  822  * @brief   Handles all key events for this device.
//  823  *
//  824  * @param   shift - true if in shift/alt.
//  825  * @param   keys - bit field for key events. Valid entries:
//  826  *                 HAL_KEY_SW_4
//  827  *                 HAL_KEY_SW_3
//  828  *                 HAL_KEY_SW_2
//  829  *                 HAL_KEY_SW_1
//  830  *
//  831  * @return  none
//  832  */
//  833 static void GenericApp_HandleKeys( uint8 shift, uint8 keys )
//  834 {
//  835   zAddrType_t dstAddr;
//  836 
//  837   
//  838   /*
//  839   // Shift is used to make each button/switch dual purpose.
//  840   if ( shift )
//  841   {
//  842     if ( keys & HAL_KEY_SW_1 )
//  843     {
//  844     }
//  845     if ( keys & HAL_KEY_SW_2 )
//  846     {
//  847     }
//  848     if ( keys & HAL_KEY_SW_3 )
//  849     {
//  850     }
//  851     if ( keys & HAL_KEY_SW_4 )
//  852     {
//  853     }
//  854   }
//  855   else
//  856   {
//  857     if ( keys & HAL_KEY_SW_1 )
//  858     {
//  859 
//  860 #if defined( SWITCH1_BIND )
//  861       // we can use SW1 to simulate SW2 for devices that only have one switch,
//  862       keys |= HAL_KEY_SW_2;
//  863 #elif defined( SWITCH1_MATCH )
//  864       // or use SW1 to simulate SW4 for devices that only have one switch
//  865       keys |= HAL_KEY_SW_4;
//  866 #endif
//  867 
//  868     }
//  869 
//  870     if ( keys & HAL_KEY_SW_2 )
//  871     {
//  872       HalLedSet ( HAL_LED_4, HAL_LED_MODE_OFF );
//  873 
//  874       // Initiate an End Device Bind Request for the mandatory endpoint
//  875       dstAddr.addrMode = Addr16Bit;
//  876       dstAddr.addr.shortAddr = 0x0000; // Coordinator
//  877       ZDP_EndDeviceBindReq( &dstAddr, NLME_GetShortAddr(),
//  878                             GenericApp_epDesc.endPoint,
//  879                             GENERICAPP_PROFID,
//  880                             GENERICAPP_MAX_CLUSTERS, (cId_t *)GenericApp_ClusterList,
//  881                             GENERICAPP_MAX_CLUSTERS, (cId_t *)GenericApp_ClusterList,
//  882                             FALSE );
//  883     }
//  884 
//  885     if ( keys & HAL_KEY_SW_3 )
//  886     {
//  887     }
//  888 
//  889     if ( keys & HAL_KEY_SW_4 )
//  890     {
//  891       HalLedSet ( HAL_LED_4, HAL_LED_MODE_OFF );
//  892       // Initiate a Match Description Request (Service Discovery)
//  893       dstAddr.addrMode = AddrBroadcast;
//  894       dstAddr.addr.shortAddr = NWK_BROADCAST_SHORTADDR;
//  895       ZDP_MatchDescReq( &dstAddr, NWK_BROADCAST_SHORTADDR,
//  896                         GENERICAPP_PROFID,
//  897                         GENERICAPP_MAX_CLUSTERS, (cId_t *)GenericApp_ClusterList,
//  898                         GENERICAPP_MAX_CLUSTERS, (cId_t *)GenericApp_ClusterList,
//  899                         FALSE );
//  900     }    
//  901   }
//  902   */
//  903   
//  904 }
//  905 
//  906 /*********************************************************************
//  907  * LOCAL FUNCTIONS
//  908  */
//  909 
//  910 /*********************************************************************
//  911  * @fn      GenericApp_MessageMSGCB
//  912  *
//  913  * @brief   Data message processor callback.  This function processes
//  914  *          any incoming data - probably from other devices.  So, based
//  915  *          on cluster ID, perform the intended action.
//  916  *
//  917  * @param   none
//  918  *
//  919  * @return  none
//  920  */

        RSEG BANKED_CODE:CODE:NOROOT(0)
//  921 static void GenericApp_MessageMSGCB( afIncomingMSGPacket_t *pkt )
GenericApp_MessageMSGCB:
        CFI Block cfiBlock21 Using cfiCommon0
        CFI Function GenericApp_MessageMSGCB
        CODE
//  922 {
        FUNCALL GenericApp_MessageMSGCB, UART_Send_String
        LOCFRAME ISTACK, 2, STACK
        LOCFRAME PSTACK, 0, STACK
        LOCFRAME XSTACK, 0, STACK
        LOCFRAME IOVERLAY, 0, STATIC
        LOCFRAME DOVERLAY, 0, STATIC
        ARGFRAME ISTACK, 2, STACK
        ARGFRAME PSTACK, 0, STACK
        ARGFRAME XSTACK, 0, STACK
        ARGFRAME IOVERLAY, 0, STATIC
        ARGFRAME DOVERLAY, 0, STATIC
        PUSH    DPL
        CFI DPL0 Frame(CFA_SP, 4)
        CFI CFA_SP SP+-4
        PUSH    DPH
        CFI DPH0 Frame(CFA_SP, 5)
        CFI CFA_SP SP+-5
        ; Saved register size: 2
        ; Auto size: 0
//  923   unsigned char buff[12];
//  924   char*p;
//  925   byte nr;
//  926   uint8 i;
//  927   uint8 ass_num;
//  928   uint8* ieeeaddr;
//  929   
//  930   
//  931   uint8 yy1;
//  932   uint16 devlist[ NWK_MAX_DEVICES + 1];
//  933   
//  934   afAddrType_t myaddr; // use for p2p
//  935   
//  936   ass_num = 0;
//  937   
//  938   switch ( pkt->clusterId )
        MOV     DPL,R2
        MOV     DPH,R3
        INC     DPTR
        INC     DPTR
        INC     DPTR
        INC     DPTR
        MOVX    A,@DPTR
        XRL     A,#0x1
        JNZ     ??GenericApp_MessageMSGCB_0
        INC     DPTR
        MOVX    A,@DPTR
??GenericApp_MessageMSGCB_0:
        JNZ     ??GenericApp_MessageMSGCB_1
//  939   {
//  940     case GENERICAPP_CLUSTERID:
//  941       //sprintf(buff,"%hu", pkt->cmd.DataLength);
//  942      ///if( p[4] =='l' && p[5] =='e' && p[6] =='d' && p[7] =='1')
//  943      // {
//  944 //       uprint( (uint8*)pkt->srcAddr );
//  945 //        uprint( (uint8*)pkt->endPoint);
//  946        // UART_Send_String( &pkt->LinkQuality, 1);
//  947         //uprint( pkt->cmd.Data);
//  948      // }
//  949      //UART_Send_String( (uint8*)&pkt->cmd.DataLength, 1);
//  950      //UART_Send_String( &pkt->cmd.TransSeqNumber,1 );
//  951 
//  952     if( pkt->cmd.DataLength == 1)
//  953     {      
//  954         yy1 = 1;
//  955 #if !defined( ZDO_COORDINATOR ) 
//  956         if(pkt->cmd.Data[0] == 0x6d)
//  957         {
//  958           /// return mac address : ac xx xx ieee addr
//  959                myaddr.addrMode = (afAddrMode_t)Addr16Bit;
//  960                myaddr.endPoint = GENERICAPP_ENDPOINT;          
//  961                myaddr.addr.shortAddr = 0x0000;
//  962                
//  963             ieeeaddr = NLME_GetExtAddr();
//  964             osal_cpyExtAddr(buff+3, ieeeaddr);
//  965             buff[0] = 0xac;
//  966             buff[1] = LO_UINT16(_NIB.nwkDevAddress);
//  967             buff[2] = HI_UINT16(_NIB.nwkDevAddress);
//  968             if ( AF_DataRequest( &myaddr, &GenericApp_epDesc, GENERICAPP_CLUSTERID,  11,
//  969                           &buff[0],
//  970                           &GenericApp_TransID,
//  971                           AF_DISCV_ROUTE, AF_DEFAULT_RADIUS ) != afStatus_SUCCESS )
//  972             {
//  973                  AF_DataRequest( &myaddr, &GenericApp_epDesc, GENERICAPP_CLUSTERID,  11,
//  974                           &buff[0],
//  975                           &GenericApp_TransID,
//  976                           AF_DISCV_ROUTE, AF_DEFAULT_RADIUS );
//  977               // send twice only, if it is still not ok, fuck it
//  978             }            
//  979             
//  980         }
//  981         // only routers return devlist
//  982         if( pkt->cmd.Data[0] == 0xCA )
//  983         {
//  984                myaddr.addrMode = (afAddrMode_t)Addr16Bit;
//  985                myaddr.endPoint = GENERICAPP_ENDPOINT;          
//  986                myaddr.addr.shortAddr = 0x0000;
//  987           
//  988         ass_num = AssocCount(1, 4);
//  989       //  if( ass_num > 0)
//  990         //{
//  991           for(i=0;i< NWK_MAX_DEVICES; i++)
//  992           {
//  993              nr = AssociatedDevList[ i ].nodeRelation;
//  994               if(nr > 0 && nr < 5) //CHILD_RFD CHILD_RFD_RX_IDLE CHILD_FFD CHILD_FFD_RX_IDLE
//  995              //if( nr != 0XFF)
//  996              {
//  997              //  if( AssociatedDevList[ i ].shortAddr != 0x0000)
//  998              //  {
//  999                   //if( AssocIsChild( AssociatedDevList[ i ].shortAddr ) != 1 || AssociatedDevList[ i ].age > NWK_ROUTE_AGE_LIMIT)
// 1000                   //if( AssocIsChild( AssociatedDevList[ i ].shortAddr ) == 1 && AssociatedDevList[ i ].age > NWK_ROUTE_AGE_LIMIT )
// 1001                  // {
// 1002                     //  myaddr.addr.shortAddr = AssociatedDevList[ i ].shortAddr;
// 1003                       /*
// 1004                       if ( AF_DataRequest( &myaddr, &GenericApp_epDesc, GENERICAPP_CLUSTERID,(byte)osal_strlen( theMessageData ) + 1,
// 1005                               (byte *)&theMessageData,
// 1006                               &GenericApp_TransID,
// 1007                               AF_ACK_REQUEST, AF_DEFAULT_RADIUS ) != afStatus_SUCCESS )
// 1008                         {
// 1009                           uprint("delete asso");
// 1010                         */
// 1011                    //       delete_asso( AssociatedDevList[ i ]. addrIdx);
// 1012                           
// 1013                   // }
// 1014                     //    else
// 1015                      //   {
// 1016                           devlist[yy1] = AssociatedDevList[ i ].shortAddr;
// 1017                           yy1++;
// 1018                      //   }
// 1019                   
// 1020                   // }
// 1021              }
// 1022               else { break; }
// 1023           }
// 1024        // }else
// 1025         //{
// 1026           //devlist[yy1] = 0;
// 1027         //}
// 1028           devlist[0] = BUILD_UINT16(0xce,  ass_num );
// 1029           if ( AF_DataRequest( &myaddr, &GenericApp_epDesc, GENERICAPP_CLUSTERID, yy1*2,
// 1030                           (byte *)&devlist,
// 1031                           &GenericApp_TransID,
// 1032                           AF_DISCV_ROUTE, AF_DEFAULT_RADIUS ) != afStatus_SUCCESS )
// 1033           {
// 1034               AF_DataRequest( &myaddr, &GenericApp_epDesc, GENERICAPP_CLUSTERID, yy1*2,
// 1035                           (byte *)&devlist,
// 1036                           &GenericApp_TransID,
// 1037                           AF_DISCV_ROUTE, AF_DEFAULT_RADIUS );
// 1038              // send twice only, if it is still not ok, fuck it
// 1039           }
// 1040         
// 1041           
// 1042           //cb_SendDataRequest( 0x0000, GENERICAPP_CLUSTERID, yy1*2+1, (uint8*)&devlist[0], 0, AF_DISCV_ROUTE, 0 );
// 1043           
// 1044           //UART_Send_String( (uint8*)&devlist[0], yy1*2);
// 1045           
// 1046             //p1 = AssocMakeList( &cnt );
// 1047             //UART_Send_String( (uint8*)p1,  AssocCount(1, 4)*2);
// 1048             //osal_mem_free(p1);
// 1049         }
// 1050 #endif  
// 1051     } //if( pkt->cmd.DataLength == 1)
// 1052     
// 1053     if( pkt->cmd.DataLength == 3)
        LCALL   ?Subroutine6 & 0xFFFF
??CrossCallReturnLabel_10:
        XRL     A,#0x3
        JNZ     ??GenericApp_MessageMSGCB_2
        INC     DPTR
        MOVX    A,@DPTR
??GenericApp_MessageMSGCB_2:
        JNZ     ??GenericApp_MessageMSGCB_1
// 1054     { 
// 1055         //ed fa 01 ,turn on led 1
// 1056         //ed ff 01  turn off led 1
// 1057         if( pkt->cmd.Data[0] == 0xed  && pkt->cmd.Data[1] == 0xfa )
        MOV     A,R2
        ADD     A,#0x22
        MOV     DPL,A
        MOV     A,R3
        LCALL   ?Subroutine4 & 0xFFFF
??CrossCallReturnLabel_7:
        XRL     A,#0xed
        JNZ     ??GenericApp_MessageMSGCB_3
        LCALL   ?Subroutine5 & 0xFFFF
??CrossCallReturnLabel_8:
        XRL     A,#0xfa
        JNZ     ??GenericApp_MessageMSGCB_3
// 1058         {
// 1059             switch(pkt->cmd.Data[2])
        LCALL   ?Subroutine3 & 0xFFFF
??CrossCallReturnLabel_4:
        JNZ     ??GenericApp_MessageMSGCB_3
// 1060             {
// 1061               case 0x01:
// 1062                 led1 = 1;
        SETB    0x90.0
// 1063                 break;
// 1064               case 0x05:
// 1065                 // led5 = 1;
// 1066                 break;
// 1067               default:break;
// 1068             }
// 1069                    
// 1070         }
// 1071         if( pkt->cmd.Data[0] == 0xed  && pkt->cmd.Data[1] == 0xff )
??GenericApp_MessageMSGCB_3:
        LCALL   ?Subroutine8 & 0xFFFF
??CrossCallReturnLabel_12:
        LCALL   ??Subroutine12_0 & 0xFFFF
??CrossCallReturnLabel_20:
        MOVX    A,@DPTR
        XRL     A,#0xed
        JNZ     ??GenericApp_MessageMSGCB_1
        LCALL   ?Subroutine5 & 0xFFFF
??CrossCallReturnLabel_9:
        CPL     A
        JNZ     ??GenericApp_MessageMSGCB_1
// 1072         {
// 1073             switch(pkt->cmd.Data[2])
        LCALL   ?Subroutine3 & 0xFFFF
??CrossCallReturnLabel_5:
        JNZ     ??GenericApp_MessageMSGCB_1
// 1074             {
// 1075               case 0x01:
// 1076                 led1 = 0;
        CLR     0x90.0
// 1077                 break;
// 1078               case 0x05:
// 1079                //  led5 = 0;
// 1080                 break;
// 1081               default:break;
// 1082             }          
// 1083         }
// 1084         
// 1085     } // if( pkt->cmd.DataLength == 3)
// 1086     
// 1087      // led1 = !led1;
// 1088      // led5 = !led5;
// 1089       break;
// 1090   }
// 1091   
// 1092 #if defined( LCD_SUPPORTED )
// 1093       UART_Send_String( &pkt->cmd.Data[0], pkt->cmd.DataLength);
??GenericApp_MessageMSGCB_1:
        ; Setup parameters for call to function UART_Send_String
        LCALL   ?Subroutine6 & 0xFFFF
??CrossCallReturnLabel_11:
        MOV     R4,A
        INC     DPTR
        MOVX    A,@DPTR
        MOV     R5,A
        LCALL   ?Subroutine8 & 0xFFFF
??CrossCallReturnLabel_13:
        MOVX    A,@DPTR
        MOV     R2,A
        INC     DPTR
        MOVX    A,@DPTR
        MOV     R3,A
        LCALL   ??UART_Send_String?relay
// 1094 #endif
// 1095 
// 1096 }
        POP     DPH
        CFI DPH0 SameValue
        CFI CFA_SP SP+-4
        POP     DPL
        CFI DPL0 SameValue
        CFI CFA_SP SP+-3
        LJMP    ?BRET
        CFI EndBlock cfiBlock21
        REQUIRE _A_P1

        RSEG BANKED_CODE:CODE:NOROOT(0)
?Subroutine8:
        CFI Block cfiCond22 Using cfiCommon0
        CFI NoFunction
        CFI Conditional ??CrossCallReturnLabel_12
        CFI DPL0 Frame(CFA_SP, 4)
        CFI DPH0 Frame(CFA_SP, 5)
        CFI CFA_SP SP+-5
        CFI Block cfiCond23 Using cfiCommon0
        CFI (cfiCond23) NoFunction
        CFI (cfiCond23) Conditional ??CrossCallReturnLabel_13
        CFI (cfiCond23) DPL0 Frame(CFA_SP, 4)
        CFI (cfiCond23) DPH0 Frame(CFA_SP, 5)
        CFI (cfiCond23) CFA_SP SP+-5
        CFI Block cfiPicker24 Using cfiCommon1
        CFI (cfiPicker24) NoFunction
        CFI (cfiPicker24) Picker
        LCALL   ?Subroutine10 & 0xFFFF
??CrossCallReturnLabel_14:
        RET
        CFI EndBlock cfiCond22
        CFI EndBlock cfiCond23
        CFI EndBlock cfiPicker24

        RSEG BANKED_CODE:CODE:NOROOT(0)
?Subroutine10:
        CFI Block cfiCond25 Using cfiCommon0
        CFI NoFunction
        CFI Conditional ??CrossCallReturnLabel_14, ??CrossCallReturnLabel_12
        CFI DPL0 Frame(CFA_SP, 4)
        CFI DPH0 Frame(CFA_SP, 5)
        CFI CFA_SP SP+-5
        CFI Block cfiCond26 Using cfiCommon0
        CFI (cfiCond26) NoFunction
        CFI (cfiCond26) Conditional ??CrossCallReturnLabel_14, ??CrossCallReturnLabel_13
        CFI (cfiCond26) DPL0 Frame(CFA_SP, 4)
        CFI (cfiCond26) DPH0 Frame(CFA_SP, 5)
        CFI (cfiCond26) CFA_SP SP+-5
        CFI Block cfiCond27 Using cfiCommon0
        CFI (cfiCond27) NoFunction
        CFI (cfiCond27) Conditional ??CrossCallReturnLabel_15, ??CrossCallReturnLabel_23, ??CrossCallReturnLabel_8
        CFI (cfiCond27) DPL0 Frame(CFA_SP, 4)
        CFI (cfiCond27) DPH0 Frame(CFA_SP, 5)
        CFI (cfiCond27) CFA_SP SP+-5
        CFI Block cfiCond28 Using cfiCommon0
        CFI (cfiCond28) NoFunction
        CFI (cfiCond28) Conditional ??CrossCallReturnLabel_15, ??CrossCallReturnLabel_23, ??CrossCallReturnLabel_9
        CFI (cfiCond28) DPL0 Frame(CFA_SP, 4)
        CFI (cfiCond28) DPH0 Frame(CFA_SP, 5)
        CFI (cfiCond28) CFA_SP SP+-5
        CFI Block cfiCond29 Using cfiCommon0
        CFI (cfiCond29) NoFunction
        CFI (cfiCond29) Conditional ??CrossCallReturnLabel_15, ??CrossCallReturnLabel_22, ??CrossCallReturnLabel_4
        CFI (cfiCond29) DPL0 Frame(CFA_SP, 4)
        CFI (cfiCond29) DPH0 Frame(CFA_SP, 5)
        CFI (cfiCond29) CFA_SP SP+-5
        CFI Block cfiCond30 Using cfiCommon0
        CFI (cfiCond30) NoFunction
        CFI (cfiCond30) Conditional ??CrossCallReturnLabel_15, ??CrossCallReturnLabel_22, ??CrossCallReturnLabel_5
        CFI (cfiCond30) DPL0 Frame(CFA_SP, 4)
        CFI (cfiCond30) DPH0 Frame(CFA_SP, 5)
        CFI (cfiCond30) CFA_SP SP+-5
        CFI Block cfiPicker31 Using cfiCommon1
        CFI (cfiPicker31) NoFunction
        CFI (cfiPicker31) Picker
        MOV     A,R2
        ADD     A,#0x22
        MOV     DPL,A
        MOV     A,R3
        ADDC    A,#0x0
        MOV     DPH,A
        RET
        CFI EndBlock cfiCond25
        CFI EndBlock cfiCond26
        CFI EndBlock cfiCond27
        CFI EndBlock cfiCond28
        CFI EndBlock cfiCond29
        CFI EndBlock cfiCond30
        CFI EndBlock cfiPicker31

        RSEG BANKED_CODE:CODE:NOROOT(0)
?Subroutine6:
        CFI Block cfiCond32 Using cfiCommon0
        CFI NoFunction
        CFI Conditional ??CrossCallReturnLabel_10
        CFI DPL0 Frame(CFA_SP, 4)
        CFI DPH0 Frame(CFA_SP, 5)
        CFI CFA_SP SP+-5
        CFI Block cfiCond33 Using cfiCommon0
        CFI (cfiCond33) NoFunction
        CFI (cfiCond33) Conditional ??CrossCallReturnLabel_11
        CFI (cfiCond33) DPL0 Frame(CFA_SP, 4)
        CFI (cfiCond33) DPH0 Frame(CFA_SP, 5)
        CFI (cfiCond33) CFA_SP SP+-5
        CFI Block cfiPicker34 Using cfiCommon1
        CFI (cfiPicker34) NoFunction
        CFI (cfiPicker34) Picker
        MOV     A,R2
        ADD     A,#0x20
        MOV     DPL,A
        MOV     A,R3
        ADDC    A,#0x0
        MOV     DPH,A
        MOVX    A,@DPTR
        RET
        CFI EndBlock cfiCond32
        CFI EndBlock cfiCond33
        CFI EndBlock cfiPicker34

        RSEG BANKED_CODE:CODE:NOROOT(0)
?Subroutine5:
        CFI Block cfiCond35 Using cfiCommon0
        CFI NoFunction
        CFI Conditional ??CrossCallReturnLabel_8
        CFI DPL0 Frame(CFA_SP, 4)
        CFI DPH0 Frame(CFA_SP, 5)
        CFI CFA_SP SP+-5
        CFI Block cfiCond36 Using cfiCommon0
        CFI (cfiCond36) NoFunction
        CFI (cfiCond36) Conditional ??CrossCallReturnLabel_9
        CFI (cfiCond36) DPL0 Frame(CFA_SP, 4)
        CFI (cfiCond36) DPH0 Frame(CFA_SP, 5)
        CFI (cfiCond36) CFA_SP SP+-5
        CFI Block cfiPicker37 Using cfiCommon1
        CFI (cfiPicker37) NoFunction
        CFI (cfiPicker37) Picker
        LCALL   ?Subroutine9 & 0xFFFF
??CrossCallReturnLabel_23:
        INC     DPTR
        MOVX    A,@DPTR
        RET
        CFI EndBlock cfiCond35
        CFI EndBlock cfiCond36
        CFI EndBlock cfiPicker37

        RSEG BANKED_CODE:CODE:NOROOT(0)
?Subroutine9:
        CFI Block cfiCond38 Using cfiCommon0
        CFI NoFunction
        CFI Conditional ??CrossCallReturnLabel_23, ??CrossCallReturnLabel_8
        CFI DPL0 Frame(CFA_SP, 4)
        CFI DPH0 Frame(CFA_SP, 5)
        CFI CFA_SP SP+-5
        CFI Block cfiCond39 Using cfiCommon0
        CFI (cfiCond39) NoFunction
        CFI (cfiCond39) Conditional ??CrossCallReturnLabel_23, ??CrossCallReturnLabel_9
        CFI (cfiCond39) DPL0 Frame(CFA_SP, 4)
        CFI (cfiCond39) DPH0 Frame(CFA_SP, 5)
        CFI (cfiCond39) CFA_SP SP+-5
        CFI Block cfiCond40 Using cfiCommon0
        CFI (cfiCond40) NoFunction
        CFI (cfiCond40) Conditional ??CrossCallReturnLabel_22, ??CrossCallReturnLabel_4
        CFI (cfiCond40) DPL0 Frame(CFA_SP, 4)
        CFI (cfiCond40) DPH0 Frame(CFA_SP, 5)
        CFI (cfiCond40) CFA_SP SP+-5
        CFI Block cfiCond41 Using cfiCommon0
        CFI (cfiCond41) NoFunction
        CFI (cfiCond41) Conditional ??CrossCallReturnLabel_22, ??CrossCallReturnLabel_5
        CFI (cfiCond41) DPL0 Frame(CFA_SP, 4)
        CFI (cfiCond41) DPH0 Frame(CFA_SP, 5)
        CFI (cfiCond41) CFA_SP SP+-5
        CFI Block cfiPicker42 Using cfiCommon1
        CFI (cfiPicker42) NoFunction
        CFI (cfiPicker42) Picker
        LCALL   ?Subroutine10 & 0xFFFF
        CFI EndBlock cfiCond38
        CFI EndBlock cfiCond39
        CFI EndBlock cfiCond40
        CFI EndBlock cfiCond41
        CFI EndBlock cfiPicker42
??CrossCallReturnLabel_15:
        REQUIRE ??Subroutine12_0
        ; // Fall through to label ??Subroutine12_0

        RSEG BANKED_CODE:CODE:NOROOT(0)
??Subroutine12_0:
        CFI Block cfiCond43 Using cfiCommon0
        CFI NoFunction
        CFI Conditional ??CrossCallReturnLabel_20
        CFI DPL0 Frame(CFA_SP, 4)
        CFI DPH0 Frame(CFA_SP, 5)
        CFI CFA_SP SP+-5
        CFI Block cfiCond44 Using cfiCommon0
        CFI (cfiCond44) NoFunction
        CFI (cfiCond44) Conditional ??CrossCallReturnLabel_21, ??CrossCallReturnLabel_6
        CFI (cfiCond44) R6 load(1, XDATA, add(CFA_XSP16, literal(-12)))
        CFI (cfiCond44) VB load(1, XDATA, add(CFA_XSP16, literal(-11)))
        CFI (cfiCond44) V0 load(1, XDATA, add(CFA_XSP16, literal(-10)))
        CFI (cfiCond44) V1 load(1, XDATA, add(CFA_XSP16, literal(-9)))
        CFI (cfiCond44) V2 load(1, XDATA, add(CFA_XSP16, literal(-8)))
        CFI (cfiCond44) V3 load(1, XDATA, add(CFA_XSP16, literal(-7)))
        CFI (cfiCond44) R7 load(1, XDATA, add(CFA_XSP16, literal(-6)))
        CFI (cfiCond44) ?RET_LOW load(1, XDATA, add(CFA_XSP16, literal(-5)))
        CFI (cfiCond44) ?RET_HIGH load(1, XDATA, add(CFA_XSP16, literal(-4)))
        CFI (cfiCond44) ?BRET_EXT load(1, XDATA, add(CFA_XSP16, literal(-3)))
        CFI (cfiCond44) DPL0 load(1, XDATA, add(CFA_XSP16, literal(-2)))
        CFI (cfiCond44) DPH0 load(1, XDATA, add(CFA_XSP16, literal(-1)))
        CFI (cfiCond44) CFA_SP SP+0
        CFI (cfiCond44) CFA_XSP16 add(XSP16, 24)
        CFI Block cfiCond45 Using cfiCommon0
        CFI (cfiCond45) NoFunction
        CFI (cfiCond45) Conditional ??CrossCallReturnLabel_21, ??CrossCallReturnLabel_7
        CFI (cfiCond45) DPL0 Frame(CFA_SP, 4)
        CFI (cfiCond45) DPH0 Frame(CFA_SP, 5)
        CFI (cfiCond45) CFA_SP SP+-5
        CFI Block cfiCond46 Using cfiCommon0
        CFI (cfiCond46) NoFunction
        CFI (cfiCond46) Conditional ??CrossCallReturnLabel_23, ??CrossCallReturnLabel_8
        CFI (cfiCond46) DPL0 Frame(CFA_SP, 4)
        CFI (cfiCond46) DPH0 Frame(CFA_SP, 5)
        CFI (cfiCond46) CFA_SP SP+-5
        CFI Block cfiCond47 Using cfiCommon0
        CFI (cfiCond47) NoFunction
        CFI (cfiCond47) Conditional ??CrossCallReturnLabel_23, ??CrossCallReturnLabel_9
        CFI (cfiCond47) DPL0 Frame(CFA_SP, 4)
        CFI (cfiCond47) DPH0 Frame(CFA_SP, 5)
        CFI (cfiCond47) CFA_SP SP+-5
        CFI Block cfiCond48 Using cfiCommon0
        CFI (cfiCond48) NoFunction
        CFI (cfiCond48) Conditional ??CrossCallReturnLabel_22, ??CrossCallReturnLabel_4
        CFI (cfiCond48) DPL0 Frame(CFA_SP, 4)
        CFI (cfiCond48) DPH0 Frame(CFA_SP, 5)
        CFI (cfiCond48) CFA_SP SP+-5
        CFI Block cfiCond49 Using cfiCommon0
        CFI (cfiCond49) NoFunction
        CFI (cfiCond49) Conditional ??CrossCallReturnLabel_22, ??CrossCallReturnLabel_5
        CFI (cfiCond49) DPL0 Frame(CFA_SP, 4)
        CFI (cfiCond49) DPH0 Frame(CFA_SP, 5)
        CFI (cfiCond49) CFA_SP SP+-5
        CFI Block cfiPicker50 Using cfiCommon1
        CFI (cfiPicker50) NoFunction
        CFI (cfiPicker50) Picker
        INC     DPTR
        MOVX    A,@DPTR
        MOV     DPH,A
        MOV     DPL,R0
        RET
        CFI EndBlock cfiCond43
        CFI EndBlock cfiCond44
        CFI EndBlock cfiCond45
        CFI EndBlock cfiCond46
        CFI EndBlock cfiCond47
        CFI EndBlock cfiCond48
        CFI EndBlock cfiCond49
        CFI EndBlock cfiPicker50

        RSEG BANKED_CODE:CODE:NOROOT(0)
?Subroutine4:
        CFI Block cfiCond51 Using cfiCommon0
        CFI NoFunction
        CFI Conditional ??CrossCallReturnLabel_6
        CFI R6 load(1, XDATA, add(CFA_XSP16, literal(-12)))
        CFI VB load(1, XDATA, add(CFA_XSP16, literal(-11)))
        CFI V0 load(1, XDATA, add(CFA_XSP16, literal(-10)))
        CFI V1 load(1, XDATA, add(CFA_XSP16, literal(-9)))
        CFI V2 load(1, XDATA, add(CFA_XSP16, literal(-8)))
        CFI V3 load(1, XDATA, add(CFA_XSP16, literal(-7)))
        CFI R7 load(1, XDATA, add(CFA_XSP16, literal(-6)))
        CFI ?RET_LOW load(1, XDATA, add(CFA_XSP16, literal(-5)))
        CFI ?RET_HIGH load(1, XDATA, add(CFA_XSP16, literal(-4)))
        CFI ?BRET_EXT load(1, XDATA, add(CFA_XSP16, literal(-3)))
        CFI DPL0 load(1, XDATA, add(CFA_XSP16, literal(-2)))
        CFI DPH0 load(1, XDATA, add(CFA_XSP16, literal(-1)))
        CFI CFA_SP SP+0
        CFI CFA_XSP16 add(XSP16, 24)
        CFI Block cfiCond52 Using cfiCommon0
        CFI (cfiCond52) NoFunction
        CFI (cfiCond52) Conditional ??CrossCallReturnLabel_7
        CFI (cfiCond52) DPL0 Frame(CFA_SP, 4)
        CFI (cfiCond52) DPH0 Frame(CFA_SP, 5)
        CFI (cfiCond52) CFA_SP SP+-5
        CFI Block cfiPicker53 Using cfiCommon1
        CFI (cfiPicker53) NoFunction
        CFI (cfiPicker53) Picker
        ADDC    A,#0x0
        MOV     DPH,A
        MOVX    A,@DPTR
        MOV     R0,A
        LCALL   ??Subroutine12_0 & 0xFFFF
??CrossCallReturnLabel_21:
        MOVX    A,@DPTR
        RET
        CFI EndBlock cfiCond51
        CFI EndBlock cfiCond52
        CFI EndBlock cfiPicker53

        RSEG BANKED_CODE:CODE:NOROOT(0)
?Subroutine3:
        CFI Block cfiCond54 Using cfiCommon0
        CFI NoFunction
        CFI Conditional ??CrossCallReturnLabel_4
        CFI DPL0 Frame(CFA_SP, 4)
        CFI DPH0 Frame(CFA_SP, 5)
        CFI CFA_SP SP+-5
        CFI Block cfiCond55 Using cfiCommon0
        CFI (cfiCond55) NoFunction
        CFI (cfiCond55) Conditional ??CrossCallReturnLabel_5
        CFI (cfiCond55) DPL0 Frame(CFA_SP, 4)
        CFI (cfiCond55) DPH0 Frame(CFA_SP, 5)
        CFI (cfiCond55) CFA_SP SP+-5
        CFI Block cfiPicker56 Using cfiCommon1
        CFI (cfiPicker56) NoFunction
        CFI (cfiPicker56) Picker
        LCALL   ?Subroutine9 & 0xFFFF
??CrossCallReturnLabel_22:
        INC     DPTR
        INC     DPTR
        MOVX    A,@DPTR
        XRL     A,#0x1
        RET
        CFI EndBlock cfiCond54
        CFI EndBlock cfiCond55
        CFI EndBlock cfiPicker56

        RSEG BANK_RELAYS:CODE:REORDER:NOROOT(0)
??cb_GetDeviceInfo?relay:
        LCALL   ?BDISPATCH
        DATA
        DC24    cb_GetDeviceInfo

        RSEG BANK_RELAYS:CODE:REORDER:NOROOT(0)
??CAPI_SendCback?relay:
        LCALL   ?BDISPATCH
        DATA
        DC24    CAPI_SendCback

        RSEG BANK_RELAYS:CODE:REORDER:NOROOT(0)
??cb_SendDataRequest?relay:
        LCALL   ?BDISPATCH
        DATA
        DC24    cb_SendDataRequest

        RSEG BANK_RELAYS:CODE:REORDER:NOROOT(0)
??Serial_callBack?relay:
        LCALL   ?BDISPATCH
        DATA
        DC24    Serial_callBack

        RSEG BANK_RELAYS:CODE:REORDER:NOROOT(0)
??GenericApp_Init?relay:
        LCALL   ?BDISPATCH
        DATA
        DC24    GenericApp_Init

        RSEG BANK_RELAYS:CODE:REORDER:NOROOT(0)
??GenericApp_ProcessEvent?relay:
        LCALL   ?BDISPATCH
        DATA
        DC24    GenericApp_ProcessEvent

        RSEG BANK_RELAYS:CODE:REORDER:NOROOT(0)
??GenericApp_MessageMSGCB?relay:
        LCALL   ?BDISPATCH
        DATA
        DC24    GenericApp_MessageMSGCB

        RSEG XDATA_ROM_C:CONST:REORDER:NOROOT(0)
        DATA8
`?<Constant "pong">`:
        DB "pong"

        RSEG XDATA_ROM_C:CONST:REORDER:NOROOT(0)
        DATA8
`?<Constant "EndDevice match">`:
        DB "EndDevice match"

        RSEG XDATA_ROM_C:CONST:REORDER:NOROOT(0)
        DATA8
`?<Constant "Router Device match">`:
        DB "Router Device match"

        RSEG XDATA_ROM_C:CONST:REORDER:NOROOT(0)
        DATA8
`?<Constant "GenericApp">`:
        DB "GenericApp"

        RSEG XDATA_ROM_C:CONST:REORDER:NOROOT(0)
        DATA8
`?<Constant "Match_Decs_rsp">`:
        DB "Match_Decs_rsp"

        RSEG XDATA_ROM_C:CONST:REORDER:NOROOT(0)
        DATA8
`?<Constant "Hello World">`:
        DB "Hello World"

        RSEG XDATA_ROM_C:CONST:REORDER:NOROOT(0)
        DATA32
__Constant_800:
        DD 2048

        RSEG XDATA_ROM_C:CONST:REORDER:NOROOT(0)
        DATA32
__Constant_1000:
        DD 4096

        RSEG XDATA_ROM_C:CONST:REORDER:NOROOT(0)
        DATA32
__Constant_2000:
        DD 8192

        RSEG XDATA_ROM_C:CONST:REORDER:NOROOT(0)
        DATA32
__Constant_4000:
        DD 16384

        RSEG XDATA_ROM_C:CONST:REORDER:NOROOT(0)
        DATA32
__Constant_8000:
        DD 32768

        RSEG XDATA_ROM_C:CONST:REORDER:NOROOT(0)
        DATA32
__Constant_10000:
        DD 65536

        RSEG XDATA_ROM_C:CONST:REORDER:NOROOT(0)
        DATA32
__Constant_20000:
        DD 131072

        RSEG XDATA_ROM_C:CONST:REORDER:NOROOT(0)
        DATA32
__Constant_40000:
        DD 262144

        RSEG XDATA_ROM_C:CONST:REORDER:NOROOT(0)
        DATA32
__Constant_80000:
        DD 524288

        RSEG XDATA_ROM_C:CONST:REORDER:NOROOT(0)
        DATA32
__Constant_100000:
        DD 1048576

        RSEG XDATA_ROM_C:CONST:REORDER:NOROOT(0)
        DATA32
__Constant_200000:
        DD 2097152

        RSEG XDATA_ROM_C:CONST:REORDER:NOROOT(0)
        DATA32
__Constant_400000:
        DD 4194304

        RSEG XDATA_ROM_C:CONST:REORDER:NOROOT(0)
        DATA32
__Constant_800000:
        DD 8388608

        RSEG XDATA_ROM_C:CONST:REORDER:NOROOT(0)
        DATA32
__Constant_1000000:
        DD 16777216

        RSEG XDATA_ROM_C:CONST:REORDER:NOROOT(0)
        DATA32
__Constant_2000000:
        DD 33554432

        RSEG XDATA_ROM_C:CONST:REORDER:NOROOT(0)
        DATA32
__Constant_4000000:
        DD 67108864

        END
// 1097 
// 1098 
// 1099 static void GenericApp_SendTheMessage( void )
// 1100 {
// 1101   char theMessageData[] = "Hello World";
// 1102 
// 1103   if ( AF_DataRequest( &GenericApp_DstAddr, &GenericApp_epDesc,
// 1104                        GENERICAPP_CLUSTERID,
// 1105                        (byte)osal_strlen( theMessageData ) + 1,
// 1106                        (byte *)&theMessageData,
// 1107                        &GenericApp_TransID,
// 1108                        AF_DISCV_ROUTE, AF_DEFAULT_RADIUS ) == afStatus_SUCCESS )
// 1109   {
// 1110     // Successfully requested to be sent.
// 1111   }
// 1112   else
// 1113   {
// 1114     // Error occurred in request to send.
// 1115   }
// 1116 }
// 1117 
// 1118 #if defined( IAR_ARMCM3_LM )
// 1119 /*********************************************************************
// 1120  * @fn      GenericApp_ProcessRtosMessage
// 1121  *
// 1122  * @brief   Receive message from RTOS queue, send response back.
// 1123  *
// 1124  * @param   none
// 1125  *
// 1126  * @return  none
// 1127  */
// 1128 static void GenericApp_ProcessRtosMessage( void )
// 1129 {
// 1130   osalQueue_t inMsg;
// 1131 
// 1132   if ( osal_queue_receive( OsalQueue, &inMsg, 0 ) == pdPASS )
// 1133   {
// 1134     uint8 cmndId = inMsg.cmnd;
// 1135     uint32 counter = osal_build_uint32( inMsg.cbuf, 4 );
// 1136 
// 1137     switch ( cmndId )
// 1138     {
// 1139       case CMD_INCR:
// 1140         counter += 1;  /* Increment the incoming counter */
// 1141                        /* Intentionally fall through next case */
// 1142 
// 1143       case CMD_ECHO:
// 1144       {
// 1145         userQueue_t outMsg;
// 1146 
// 1147         outMsg.resp = RSP_CODE | cmndId;  /* Response ID */
// 1148         osal_buffer_uint32( outMsg.rbuf, counter );    /* Increment counter */
// 1149         osal_queue_send( UserQueue1, &outMsg, 0 );  /* Send back to UserTask */
// 1150         break;
// 1151       }
// 1152       
// 1153       default:
// 1154         break;  /* Ignore unknown command */    
// 1155     }
// 1156   }
// 1157 }
// 1158 #endif
// 1159 
// 1160 /*********************************************************************
// 1161  */
// 
// 2 703 bytes in segment BANKED_CODE
//    42 bytes in segment BANK_RELAYS
//     3 bytes in segment SFR_AN
//   157 bytes in segment XDATA_ROM_C
//    23 bytes in segment XDATA_Z
// 
// 2 745 bytes of CODE  memory
//    93 bytes of CONST memory (+ 64 bytes shared)
//     0 bytes of DATA  memory (+  3 bytes shared)
//    23 bytes of XDATA memory
//
//Errors: none
//Warnings: 21
